
bomb:     file format elf32-i386


Disassembly of section .init:

000008d0 <_init>:
 8d0:	53                   	push   %ebx
 8d1:	83 ec 08             	sub    $0x8,%esp
 8d4:	e8 77 02 00 00       	call   b50 <__x86.get_pc_thunk.bx>
 8d9:	81 c3 7f 46 00 00    	add    $0x467f,%ebx
 8df:	8b 83 94 00 00 00    	mov    0x94(%ebx),%eax
 8e5:	85 c0                	test   %eax,%eax
 8e7:	74 05                	je     8ee <_init+0x1e>
 8e9:	e8 1a 02 00 00       	call   b08 <__gmon_start__@plt>
 8ee:	83 c4 08             	add    $0x8,%esp
 8f1:	5b                   	pop    %ebx
 8f2:	c3                   	ret    

Disassembly of section .plt:

00000900 <.plt>:
 900:	ff b3 04 00 00 00    	pushl  0x4(%ebx)
 906:	ff a3 08 00 00 00    	jmp    *0x8(%ebx)
 90c:	00 00                	add    %al,(%eax)
	...

00000910 <strcmp@plt>:
 910:	ff a3 0c 00 00 00    	jmp    *0xc(%ebx)
 916:	68 00 00 00 00       	push   $0x0
 91b:	e9 e0 ff ff ff       	jmp    900 <.plt>

00000920 <read@plt>:
 920:	ff a3 10 00 00 00    	jmp    *0x10(%ebx)
 926:	68 08 00 00 00       	push   $0x8
 92b:	e9 d0 ff ff ff       	jmp    900 <.plt>

00000930 <printf@plt>:
 930:	ff a3 14 00 00 00    	jmp    *0x14(%ebx)
 936:	68 10 00 00 00       	push   $0x10
 93b:	e9 c0 ff ff ff       	jmp    900 <.plt>

00000940 <fflush@plt>:
 940:	ff a3 18 00 00 00    	jmp    *0x18(%ebx)
 946:	68 18 00 00 00       	push   $0x18
 94b:	e9 b0 ff ff ff       	jmp    900 <.plt>

00000950 <memcpy@plt>:
 950:	ff a3 1c 00 00 00    	jmp    *0x1c(%ebx)
 956:	68 20 00 00 00       	push   $0x20
 95b:	e9 a0 ff ff ff       	jmp    900 <.plt>

00000960 <bzero@plt>:
 960:	ff a3 20 00 00 00    	jmp    *0x20(%ebx)
 966:	68 28 00 00 00       	push   $0x28
 96b:	e9 90 ff ff ff       	jmp    900 <.plt>

00000970 <fgets@plt>:
 970:	ff a3 24 00 00 00    	jmp    *0x24(%ebx)
 976:	68 30 00 00 00       	push   $0x30
 97b:	e9 80 ff ff ff       	jmp    900 <.plt>

00000980 <signal@plt>:
 980:	ff a3 28 00 00 00    	jmp    *0x28(%ebx)
 986:	68 38 00 00 00       	push   $0x38
 98b:	e9 70 ff ff ff       	jmp    900 <.plt>

00000990 <sleep@plt>:
 990:	ff a3 2c 00 00 00    	jmp    *0x2c(%ebx)
 996:	68 40 00 00 00       	push   $0x40
 99b:	e9 60 ff ff ff       	jmp    900 <.plt>

000009a0 <alarm@plt>:
 9a0:	ff a3 30 00 00 00    	jmp    *0x30(%ebx)
 9a6:	68 48 00 00 00       	push   $0x48
 9ab:	e9 50 ff ff ff       	jmp    900 <.plt>

000009b0 <__stack_chk_fail@plt>:
 9b0:	ff a3 34 00 00 00    	jmp    *0x34(%ebx)
 9b6:	68 50 00 00 00       	push   $0x50
 9bb:	e9 40 ff ff ff       	jmp    900 <.plt>

000009c0 <htons@plt>:
 9c0:	ff a3 38 00 00 00    	jmp    *0x38(%ebx)
 9c6:	68 58 00 00 00       	push   $0x58
 9cb:	e9 30 ff ff ff       	jmp    900 <.plt>

000009d0 <bcopy@plt>:
 9d0:	ff a3 3c 00 00 00    	jmp    *0x3c(%ebx)
 9d6:	68 60 00 00 00       	push   $0x60
 9db:	e9 20 ff ff ff       	jmp    900 <.plt>

000009e0 <strcpy@plt>:
 9e0:	ff a3 40 00 00 00    	jmp    *0x40(%ebx)
 9e6:	68 68 00 00 00       	push   $0x68
 9eb:	e9 10 ff ff ff       	jmp    900 <.plt>

000009f0 <getenv@plt>:
 9f0:	ff a3 44 00 00 00    	jmp    *0x44(%ebx)
 9f6:	68 70 00 00 00       	push   $0x70
 9fb:	e9 00 ff ff ff       	jmp    900 <.plt>

00000a00 <puts@plt>:
 a00:	ff a3 48 00 00 00    	jmp    *0x48(%ebx)
 a06:	68 78 00 00 00       	push   $0x78
 a0b:	e9 f0 fe ff ff       	jmp    900 <.plt>

00000a10 <exit@plt>:
 a10:	ff a3 4c 00 00 00    	jmp    *0x4c(%ebx)
 a16:	68 80 00 00 00       	push   $0x80
 a1b:	e9 e0 fe ff ff       	jmp    900 <.plt>

00000a20 <strlen@plt>:
 a20:	ff a3 50 00 00 00    	jmp    *0x50(%ebx)
 a26:	68 88 00 00 00       	push   $0x88
 a2b:	e9 d0 fe ff ff       	jmp    900 <.plt>

00000a30 <__libc_start_main@plt>:
 a30:	ff a3 54 00 00 00    	jmp    *0x54(%ebx)
 a36:	68 90 00 00 00       	push   $0x90
 a3b:	e9 c0 fe ff ff       	jmp    900 <.plt>

00000a40 <fprintf@plt>:
 a40:	ff a3 58 00 00 00    	jmp    *0x58(%ebx)
 a46:	68 98 00 00 00       	push   $0x98
 a4b:	e9 b0 fe ff ff       	jmp    900 <.plt>

00000a50 <write@plt>:
 a50:	ff a3 5c 00 00 00    	jmp    *0x5c(%ebx)
 a56:	68 a0 00 00 00       	push   $0xa0
 a5b:	e9 a0 fe ff ff       	jmp    900 <.plt>

00000a60 <__isoc99_sscanf@plt>:
 a60:	ff a3 60 00 00 00    	jmp    *0x60(%ebx)
 a66:	68 a8 00 00 00       	push   $0xa8
 a6b:	e9 90 fe ff ff       	jmp    900 <.plt>

00000a70 <fopen@plt>:
 a70:	ff a3 64 00 00 00    	jmp    *0x64(%ebx)
 a76:	68 b0 00 00 00       	push   $0xb0
 a7b:	e9 80 fe ff ff       	jmp    900 <.plt>

00000a80 <__errno_location@plt>:
 a80:	ff a3 68 00 00 00    	jmp    *0x68(%ebx)
 a86:	68 b8 00 00 00       	push   $0xb8
 a8b:	e9 70 fe ff ff       	jmp    900 <.plt>

00000a90 <sprintf@plt>:
 a90:	ff a3 6c 00 00 00    	jmp    *0x6c(%ebx)
 a96:	68 c0 00 00 00       	push   $0xc0
 a9b:	e9 60 fe ff ff       	jmp    900 <.plt>

00000aa0 <atoi@plt>:
 aa0:	ff a3 70 00 00 00    	jmp    *0x70(%ebx)
 aa6:	68 c8 00 00 00       	push   $0xc8
 aab:	e9 50 fe ff ff       	jmp    900 <.plt>

00000ab0 <socket@plt>:
 ab0:	ff a3 74 00 00 00    	jmp    *0x74(%ebx)
 ab6:	68 d0 00 00 00       	push   $0xd0
 abb:	e9 40 fe ff ff       	jmp    900 <.plt>

00000ac0 <gethostbyname@plt>:
 ac0:	ff a3 78 00 00 00    	jmp    *0x78(%ebx)
 ac6:	68 d8 00 00 00       	push   $0xd8
 acb:	e9 30 fe ff ff       	jmp    900 <.plt>

00000ad0 <connect@plt>:
 ad0:	ff a3 7c 00 00 00    	jmp    *0x7c(%ebx)
 ad6:	68 e0 00 00 00       	push   $0xe0
 adb:	e9 20 fe ff ff       	jmp    900 <.plt>

00000ae0 <close@plt>:
 ae0:	ff a3 80 00 00 00    	jmp    *0x80(%ebx)
 ae6:	68 e8 00 00 00       	push   $0xe8
 aeb:	e9 10 fe ff ff       	jmp    900 <.plt>

00000af0 <__ctype_b_loc@plt>:
 af0:	ff a3 84 00 00 00    	jmp    *0x84(%ebx)
 af6:	68 f0 00 00 00       	push   $0xf0
 afb:	e9 00 fe ff ff       	jmp    900 <.plt>

Disassembly of section .plt.got:

00000b00 <__cxa_finalize@plt>:
 b00:	ff a3 90 00 00 00    	jmp    *0x90(%ebx)
 b06:	66 90                	xchg   %ax,%ax

00000b08 <__gmon_start__@plt>:
 b08:	ff a3 94 00 00 00    	jmp    *0x94(%ebx)
 b0e:	66 90                	xchg   %ax,%ax

Disassembly of section .text:

00000b10 <_start>:
     b10:	31 ed                	xor    %ebp,%ebp
     b12:	5e                   	pop    %esi
     b13:	89 e1                	mov    %esp,%ecx
     b15:	83 e4 f0             	and    $0xfffffff0,%esp
     b18:	50                   	push   %eax
     b19:	54                   	push   %esp
     b1a:	52                   	push   %edx
     b1b:	e8 22 00 00 00       	call   b42 <_start+0x32>
     b20:	81 c3 38 44 00 00    	add    $0x4438,%ebx
     b26:	8d 83 08 d9 ff ff    	lea    -0x26f8(%ebx),%eax
     b2c:	50                   	push   %eax
     b2d:	8d 83 a8 d8 ff ff    	lea    -0x2758(%ebx),%eax
     b33:	50                   	push   %eax
     b34:	51                   	push   %ecx
     b35:	56                   	push   %esi
     b36:	ff b3 a0 00 00 00    	pushl  0xa0(%ebx)
     b3c:	e8 ef fe ff ff       	call   a30 <__libc_start_main@plt>
     b41:	f4                   	hlt    
     b42:	8b 1c 24             	mov    (%esp),%ebx
     b45:	c3                   	ret    
     b46:	66 90                	xchg   %ax,%ax
     b48:	66 90                	xchg   %ax,%ax
     b4a:	66 90                	xchg   %ax,%ax
     b4c:	66 90                	xchg   %ax,%ax
     b4e:	66 90                	xchg   %ax,%ax

00000b50 <__x86.get_pc_thunk.bx>:
     b50:	8b 1c 24             	mov    (%esp),%ebx
     b53:	c3                   	ret    
     b54:	66 90                	xchg   %ax,%ax
     b56:	66 90                	xchg   %ax,%ax
     b58:	66 90                	xchg   %ax,%ax
     b5a:	66 90                	xchg   %ax,%ax
     b5c:	66 90                	xchg   %ax,%ax
     b5e:	66 90                	xchg   %ax,%ax

00000b60 <deregister_tm_clones>:
     b60:	e8 e4 00 00 00       	call   c49 <__x86.get_pc_thunk.dx>
     b65:	81 c2 f3 43 00 00    	add    $0x43f3,%edx
     b6b:	8d 8a c8 03 00 00    	lea    0x3c8(%edx),%ecx
     b71:	8d 82 c8 03 00 00    	lea    0x3c8(%edx),%eax
     b77:	39 c8                	cmp    %ecx,%eax
     b79:	74 1d                	je     b98 <deregister_tm_clones+0x38>
     b7b:	8b 82 88 00 00 00    	mov    0x88(%edx),%eax
     b81:	85 c0                	test   %eax,%eax
     b83:	74 13                	je     b98 <deregister_tm_clones+0x38>
     b85:	55                   	push   %ebp
     b86:	89 e5                	mov    %esp,%ebp
     b88:	83 ec 14             	sub    $0x14,%esp
     b8b:	51                   	push   %ecx
     b8c:	ff d0                	call   *%eax
     b8e:	83 c4 10             	add    $0x10,%esp
     b91:	c9                   	leave  
     b92:	c3                   	ret    
     b93:	90                   	nop
     b94:	8d 74 26 00          	lea    0x0(%esi,%eiz,1),%esi
     b98:	f3 c3                	repz ret 
     b9a:	8d b6 00 00 00 00    	lea    0x0(%esi),%esi

00000ba0 <register_tm_clones>:
     ba0:	e8 a4 00 00 00       	call   c49 <__x86.get_pc_thunk.dx>
     ba5:	81 c2 b3 43 00 00    	add    $0x43b3,%edx
     bab:	55                   	push   %ebp
     bac:	8d 8a c8 03 00 00    	lea    0x3c8(%edx),%ecx
     bb2:	8d 82 c8 03 00 00    	lea    0x3c8(%edx),%eax
     bb8:	29 c8                	sub    %ecx,%eax
     bba:	89 e5                	mov    %esp,%ebp
     bbc:	53                   	push   %ebx
     bbd:	c1 f8 02             	sar    $0x2,%eax
     bc0:	89 c3                	mov    %eax,%ebx
     bc2:	83 ec 04             	sub    $0x4,%esp
     bc5:	c1 eb 1f             	shr    $0x1f,%ebx
     bc8:	01 d8                	add    %ebx,%eax
     bca:	d1 f8                	sar    %eax
     bcc:	74 14                	je     be2 <register_tm_clones+0x42>
     bce:	8b 92 a4 00 00 00    	mov    0xa4(%edx),%edx
     bd4:	85 d2                	test   %edx,%edx
     bd6:	74 0a                	je     be2 <register_tm_clones+0x42>
     bd8:	83 ec 08             	sub    $0x8,%esp
     bdb:	50                   	push   %eax
     bdc:	51                   	push   %ecx
     bdd:	ff d2                	call   *%edx
     bdf:	83 c4 10             	add    $0x10,%esp
     be2:	8b 5d fc             	mov    -0x4(%ebp),%ebx
     be5:	c9                   	leave  
     be6:	c3                   	ret    
     be7:	89 f6                	mov    %esi,%esi
     be9:	8d bc 27 00 00 00 00 	lea    0x0(%edi,%eiz,1),%edi

00000bf0 <__do_global_dtors_aux>:
     bf0:	55                   	push   %ebp
     bf1:	89 e5                	mov    %esp,%ebp
     bf3:	53                   	push   %ebx
     bf4:	e8 57 ff ff ff       	call   b50 <__x86.get_pc_thunk.bx>
     bf9:	81 c3 5f 43 00 00    	add    $0x435f,%ebx
     bff:	83 ec 04             	sub    $0x4,%esp
     c02:	80 bb c8 03 00 00 00 	cmpb   $0x0,0x3c8(%ebx)
     c09:	75 27                	jne    c32 <__do_global_dtors_aux+0x42>
     c0b:	8b 83 90 00 00 00    	mov    0x90(%ebx),%eax
     c11:	85 c0                	test   %eax,%eax
     c13:	74 11                	je     c26 <__do_global_dtors_aux+0x36>
     c15:	83 ec 0c             	sub    $0xc,%esp
     c18:	ff b3 ac 00 00 00    	pushl  0xac(%ebx)
     c1e:	e8 dd fe ff ff       	call   b00 <__cxa_finalize@plt>
     c23:	83 c4 10             	add    $0x10,%esp
     c26:	e8 35 ff ff ff       	call   b60 <deregister_tm_clones>
     c2b:	c6 83 c8 03 00 00 01 	movb   $0x1,0x3c8(%ebx)
     c32:	8b 5d fc             	mov    -0x4(%ebp),%ebx
     c35:	c9                   	leave  
     c36:	c3                   	ret    
     c37:	89 f6                	mov    %esi,%esi
     c39:	8d bc 27 00 00 00 00 	lea    0x0(%edi,%eiz,1),%edi

00000c40 <frame_dummy>:
     c40:	55                   	push   %ebp
     c41:	89 e5                	mov    %esp,%ebp
     c43:	5d                   	pop    %ebp
     c44:	e9 57 ff ff ff       	jmp    ba0 <register_tm_clones>

00000c49 <__x86.get_pc_thunk.dx>:
     c49:	8b 14 24             	mov    (%esp),%edx
     c4c:	c3                   	ret    

00000c4d <main>:
     c4d:	8d 4c 24 04          	lea    0x4(%esp),%ecx
     c51:	83 e4 f0             	and    $0xfffffff0,%esp
     c54:	ff 71 fc             	pushl  -0x4(%ecx)
     c57:	55                   	push   %ebp
     c58:	89 e5                	mov    %esp,%ebp
     c5a:	56                   	push   %esi
     c5b:	53                   	push   %ebx
     c5c:	51                   	push   %ecx
     c5d:	83 ec 1c             	sub    $0x1c,%esp
     c60:	e8 eb fe ff ff       	call   b50 <__x86.get_pc_thunk.bx>
     c65:	81 c3 f3 42 00 00    	add    $0x42f3,%ebx
     c6b:	89 ce                	mov    %ecx,%esi
     c6d:	83 3e 01             	cmpl   $0x1,(%esi)
     c70:	75 15                	jne    c87 <main+0x3a>
     c72:	8b 83 98 00 00 00    	mov    0x98(%ebx),%eax
     c78:	8b 10                	mov    (%eax),%edx
     c7a:	8d 83 d0 03 00 00    	lea    0x3d0(%ebx),%eax
     c80:	89 10                	mov    %edx,(%eax)
     c82:	e9 83 00 00 00       	jmp    d0a <main+0xbd>
     c87:	83 3e 02             	cmpl   $0x2,(%esi)
     c8a:	75 5c                	jne    ce8 <main+0x9b>
     c8c:	8b 46 04             	mov    0x4(%esi),%eax
     c8f:	83 c0 04             	add    $0x4,%eax
     c92:	8b 00                	mov    (%eax),%eax
     c94:	83 ec 08             	sub    $0x8,%esp
     c97:	8d 93 48 d9 ff ff    	lea    -0x26b8(%ebx),%edx
     c9d:	52                   	push   %edx
     c9e:	50                   	push   %eax
     c9f:	e8 cc fd ff ff       	call   a70 <fopen@plt>
     ca4:	83 c4 10             	add    $0x10,%esp
     ca7:	89 c2                	mov    %eax,%edx
     ca9:	8d 83 d0 03 00 00    	lea    0x3d0(%ebx),%eax
     caf:	89 10                	mov    %edx,(%eax)
     cb1:	8d 83 d0 03 00 00    	lea    0x3d0(%ebx),%eax
     cb7:	8b 00                	mov    (%eax),%eax
     cb9:	85 c0                	test   %eax,%eax
     cbb:	75 4d                	jne    d0a <main+0xbd>
     cbd:	8b 46 04             	mov    0x4(%esi),%eax
     cc0:	83 c0 04             	add    $0x4,%eax
     cc3:	8b 10                	mov    (%eax),%edx
     cc5:	8b 46 04             	mov    0x4(%esi),%eax
     cc8:	8b 00                	mov    (%eax),%eax
     cca:	83 ec 04             	sub    $0x4,%esp
     ccd:	52                   	push   %edx
     cce:	50                   	push   %eax
     ccf:	8d 83 4a d9 ff ff    	lea    -0x26b6(%ebx),%eax
     cd5:	50                   	push   %eax
     cd6:	e8 55 fc ff ff       	call   930 <printf@plt>
     cdb:	83 c4 10             	add    $0x10,%esp
     cde:	83 ec 0c             	sub    $0xc,%esp
     ce1:	6a 08                	push   $0x8
     ce3:	e8 28 fd ff ff       	call   a10 <exit@plt>
     ce8:	8b 46 04             	mov    0x4(%esi),%eax
     ceb:	8b 00                	mov    (%eax),%eax
     ced:	83 ec 08             	sub    $0x8,%esp
     cf0:	50                   	push   %eax
     cf1:	8d 83 67 d9 ff ff    	lea    -0x2699(%ebx),%eax
     cf7:	50                   	push   %eax
     cf8:	e8 33 fc ff ff       	call   930 <printf@plt>
     cfd:	83 c4 10             	add    $0x10,%esp
     d00:	83 ec 0c             	sub    $0xc,%esp
     d03:	6a 08                	push   $0x8
     d05:	e8 06 fd ff ff       	call   a10 <exit@plt>
     d0a:	e8 c9 08 00 00       	call   15d8 <initialize_bomb>
     d0f:	83 ec 0c             	sub    $0xc,%esp
     d12:	8d 83 84 d9 ff ff    	lea    -0x267c(%ebx),%eax
     d18:	50                   	push   %eax
     d19:	e8 e2 fc ff ff       	call   a00 <puts@plt>
     d1e:	83 c4 10             	add    $0x10,%esp
     d21:	83 ec 0c             	sub    $0xc,%esp
     d24:	8d 83 c0 d9 ff ff    	lea    -0x2640(%ebx),%eax
     d2a:	50                   	push   %eax
     d2b:	e8 d0 fc ff ff       	call   a00 <puts@plt>
     d30:	83 c4 10             	add    $0x10,%esp
     d33:	e8 9a 09 00 00       	call   16d2 <read_line>
     d38:	89 45 e4             	mov    %eax,-0x1c(%ebp)
     d3b:	83 ec 0c             	sub    $0xc,%esp
     d3e:	ff 75 e4             	pushl  -0x1c(%ebp)
     d41:	e8 f9 00 00 00       	call   e3f <phase_1>
     d46:	83 c4 10             	add    $0x10,%esp
     d49:	e8 3e 0b 00 00       	call   188c <phase_defused>
     d4e:	83 ec 0c             	sub    $0xc,%esp
     d51:	8d 83 ec d9 ff ff    	lea    -0x2614(%ebx),%eax
     d57:	50                   	push   %eax
     d58:	e8 a3 fc ff ff       	call   a00 <puts@plt>
     d5d:	83 c4 10             	add    $0x10,%esp
     d60:	e8 6d 09 00 00       	call   16d2 <read_line>
     d65:	89 45 e4             	mov    %eax,-0x1c(%ebp)
     d68:	83 ec 0c             	sub    $0xc,%esp
     d6b:	ff 75 e4             	pushl  -0x1c(%ebp)
     d6e:	e8 02 01 00 00       	call   e75 <phase_2>
     d73:	83 c4 10             	add    $0x10,%esp
     d76:	e8 11 0b 00 00       	call   188c <phase_defused>
     d7b:	83 ec 0c             	sub    $0xc,%esp
     d7e:	8d 83 15 da ff ff    	lea    -0x25eb(%ebx),%eax
     d84:	50                   	push   %eax
     d85:	e8 76 fc ff ff       	call   a00 <puts@plt>
     d8a:	83 c4 10             	add    $0x10,%esp
     d8d:	e8 40 09 00 00       	call   16d2 <read_line>
     d92:	89 45 e4             	mov    %eax,-0x1c(%ebp)
     d95:	83 ec 0c             	sub    $0xc,%esp
     d98:	ff 75 e4             	pushl  -0x1c(%ebp)
     d9b:	e8 6e 01 00 00       	call   f0e <phase_3>
     da0:	83 c4 10             	add    $0x10,%esp
     da3:	e8 e4 0a 00 00       	call   188c <phase_defused>
     da8:	83 ec 0c             	sub    $0xc,%esp
     dab:	8d 83 33 da ff ff    	lea    -0x25cd(%ebx),%eax
     db1:	50                   	push   %eax
     db2:	e8 49 fc ff ff       	call   a00 <puts@plt>
     db7:	83 c4 10             	add    $0x10,%esp
     dba:	e8 13 09 00 00       	call   16d2 <read_line>
     dbf:	89 45 e4             	mov    %eax,-0x1c(%ebp)
     dc2:	83 ec 0c             	sub    $0xc,%esp
     dc5:	ff 75 e4             	pushl  -0x1c(%ebp)
     dc8:	e8 7d 02 00 00       	call   104a <phase_4>
     dcd:	83 c4 10             	add    $0x10,%esp
     dd0:	e8 b7 0a 00 00       	call   188c <phase_defused>
     dd5:	83 ec 0c             	sub    $0xc,%esp
     dd8:	8d 83 44 da ff ff    	lea    -0x25bc(%ebx),%eax
     dde:	50                   	push   %eax
     ddf:	e8 1c fc ff ff       	call   a00 <puts@plt>
     de4:	83 c4 10             	add    $0x10,%esp
     de7:	e8 e6 08 00 00       	call   16d2 <read_line>
     dec:	89 45 e4             	mov    %eax,-0x1c(%ebp)
     def:	83 ec 0c             	sub    $0xc,%esp
     df2:	ff 75 e4             	pushl  -0x1c(%ebp)
     df5:	e8 eb 02 00 00       	call   10e5 <phase_5>
     dfa:	83 c4 10             	add    $0x10,%esp
     dfd:	e8 8a 0a 00 00       	call   188c <phase_defused>
     e02:	83 ec 0c             	sub    $0xc,%esp
     e05:	8d 83 68 da ff ff    	lea    -0x2598(%ebx),%eax
     e0b:	50                   	push   %eax
     e0c:	e8 ef fb ff ff       	call   a00 <puts@plt>
     e11:	83 c4 10             	add    $0x10,%esp
     e14:	e8 b9 08 00 00       	call   16d2 <read_line>
     e19:	89 45 e4             	mov    %eax,-0x1c(%ebp)
     e1c:	83 ec 0c             	sub    $0xc,%esp
     e1f:	ff 75 e4             	pushl  -0x1c(%ebp)
     e22:	e8 6d 03 00 00       	call   1194 <phase_6>
     e27:	83 c4 10             	add    $0x10,%esp
     e2a:	e8 5d 0a 00 00       	call   188c <phase_defused>
     e2f:	b8 00 00 00 00       	mov    $0x0,%eax
     e34:	8d 65 f4             	lea    -0xc(%ebp),%esp
     e37:	59                   	pop    %ecx
     e38:	5b                   	pop    %ebx
     e39:	5e                   	pop    %esi
     e3a:	5d                   	pop    %ebp
     e3b:	8d 61 fc             	lea    -0x4(%ecx),%esp
     e3e:	c3                   	ret    

00000e3f <phase_1>:
     e3f:	55                   	push   %ebp
     e40:	89 e5                	mov    %esp,%ebp
     e42:	53                   	push   %ebx
     e43:	83 ec 04             	sub    $0x4,%esp
     e46:	e8 05 fd ff ff       	call   b50 <__x86.get_pc_thunk.bx>
     e4b:	81 c3 0d 41 00 00    	add    $0x410d,%ebx
     e51:	83 ec 08             	sub    $0x8,%esp
     e54:	8d 83 88 da ff ff    	lea    -0x2578(%ebx),%eax
     e5a:	50                   	push   %eax
     e5b:	ff 75 08             	pushl  0x8(%ebp)
     e5e:	e8 00 07 00 00       	call   1563 <strings_not_equal>
     e63:	83 c4 10             	add    $0x10,%esp
     e66:	85 c0                	test   %eax,%eax
     e68:	74 05                	je     e6f <phase_1+0x30>
     e6a:	e8 dd 09 00 00       	call   184c <explode_bomb>
     e6f:	90                   	nop
     e70:	8b 5d fc             	mov    -0x4(%ebp),%ebx
     e73:	c9                   	leave  
     e74:	c3                   	ret    

00000e75 <phase_2>:
     e75:	55                   	push   %ebp
     e76:	89 e5                	mov    %esp,%ebp
     e78:	53                   	push   %ebx
     e79:	83 ec 34             	sub    $0x34,%esp
     e7c:	e8 cf fc ff ff       	call   b50 <__x86.get_pc_thunk.bx>
     e81:	81 c3 d7 40 00 00    	add    $0x40d7,%ebx
     e87:	8b 45 08             	mov    0x8(%ebp),%eax
     e8a:	89 45 d4             	mov    %eax,-0x2c(%ebp)
     e8d:	65 a1 14 00 00 00    	mov    %gs:0x14,%eax
     e93:	89 45 f4             	mov    %eax,-0xc(%ebp)
     e96:	31 c0                	xor    %eax,%eax
     e98:	83 ec 08             	sub    $0x8,%esp
     e9b:	8d 45 dc             	lea    -0x24(%ebp),%eax
     e9e:	50                   	push   %eax
     e9f:	ff 75 d4             	pushl  -0x2c(%ebp)
     ea2:	e8 22 06 00 00       	call   14c9 <read_six_numbers>
     ea7:	83 c4 10             	add    $0x10,%esp
     eaa:	8b 45 dc             	mov    -0x24(%ebp),%eax
     ead:	85 c0                	test   %eax,%eax
     eaf:	75 08                	jne    eb9 <phase_2+0x44>
     eb1:	8b 45 e0             	mov    -0x20(%ebp),%eax
     eb4:	83 f8 01             	cmp    $0x1,%eax
     eb7:	74 05                	je     ebe <phase_2+0x49>
     eb9:	e8 8e 09 00 00       	call   184c <explode_bomb>
     ebe:	c7 45 d8 02 00 00 00 	movl   $0x2,-0x28(%ebp)
     ec5:	eb 2a                	jmp    ef1 <phase_2+0x7c>
     ec7:	8b 45 d8             	mov    -0x28(%ebp),%eax
     eca:	8b 44 85 dc          	mov    -0x24(%ebp,%eax,4),%eax
     ece:	8b 55 d8             	mov    -0x28(%ebp),%edx
     ed1:	83 ea 02             	sub    $0x2,%edx
     ed4:	8b 4c 95 dc          	mov    -0x24(%ebp,%edx,4),%ecx
     ed8:	8b 55 d8             	mov    -0x28(%ebp),%edx
     edb:	83 ea 01             	sub    $0x1,%edx
     ede:	8b 54 95 dc          	mov    -0x24(%ebp,%edx,4),%edx
     ee2:	01 ca                	add    %ecx,%edx
     ee4:	39 d0                	cmp    %edx,%eax
     ee6:	74 05                	je     eed <phase_2+0x78>
     ee8:	e8 5f 09 00 00       	call   184c <explode_bomb>
     eed:	83 45 d8 01          	addl   $0x1,-0x28(%ebp)
     ef1:	83 7d d8 05          	cmpl   $0x5,-0x28(%ebp)
     ef5:	7e d0                	jle    ec7 <phase_2+0x52>
     ef7:	90                   	nop
     ef8:	8b 45 f4             	mov    -0xc(%ebp),%eax
     efb:	65 33 05 14 00 00 00 	xor    %gs:0x14,%eax
     f02:	74 05                	je     f09 <phase_2+0x94>
     f04:	e8 67 19 00 00       	call   2870 <__stack_chk_fail_local>
     f09:	8b 5d fc             	mov    -0x4(%ebp),%ebx
     f0c:	c9                   	leave  
     f0d:	c3                   	ret    

00000f0e <phase_3>:
     f0e:	55                   	push   %ebp
     f0f:	89 e5                	mov    %esp,%ebp
     f11:	53                   	push   %ebx
     f12:	83 ec 34             	sub    $0x34,%esp
     f15:	e8 36 fc ff ff       	call   b50 <__x86.get_pc_thunk.bx>
     f1a:	81 c3 3e 40 00 00    	add    $0x403e,%ebx
     f20:	8b 45 08             	mov    0x8(%ebp),%eax
     f23:	89 45 d4             	mov    %eax,-0x2c(%ebp)
     f26:	65 a1 14 00 00 00    	mov    %gs:0x14,%eax
     f2c:	89 45 f4             	mov    %eax,-0xc(%ebp)
     f2f:	31 c0                	xor    %eax,%eax
     f31:	c7 45 ec 00 00 00 00 	movl   $0x0,-0x14(%ebp)
     f38:	c7 45 f0 00 00 00 00 	movl   $0x0,-0x10(%ebp)
     f3f:	8d 45 e8             	lea    -0x18(%ebp),%eax
     f42:	50                   	push   %eax
     f43:	8d 45 e4             	lea    -0x1c(%ebp),%eax
     f46:	50                   	push   %eax
     f47:	8d 83 b5 da ff ff    	lea    -0x254b(%ebx),%eax
     f4d:	50                   	push   %eax
     f4e:	ff 75 d4             	pushl  -0x2c(%ebp)
     f51:	e8 0a fb ff ff       	call   a60 <__isoc99_sscanf@plt>
     f56:	83 c4 10             	add    $0x10,%esp
     f59:	89 45 f0             	mov    %eax,-0x10(%ebp)
     f5c:	83 7d f0 01          	cmpl   $0x1,-0x10(%ebp)
     f60:	7f 05                	jg     f67 <phase_3+0x59>
     f62:	e8 e5 08 00 00       	call   184c <explode_bomb>
     f67:	8b 45 e4             	mov    -0x1c(%ebp),%eax
     f6a:	83 f8 07             	cmp    $0x7,%eax
     f6d:	77 48                	ja     fb7 <.L22+0x9>
     f6f:	c1 e0 02             	shl    $0x2,%eax
     f72:	8b 84 18 bc da ff ff 	mov    -0x2544(%eax,%ebx,1),%eax
     f79:	01 d8                	add    %ebx,%eax
     f7b:	ff e0                	jmp    *%eax

00000f7d <.L14>:
     f7d:	81 45 ec 2b 02 00 00 	addl   $0x22b,-0x14(%ebp)

00000f84 <.L16>:
     f84:	81 6d ec 13 03 00 00 	subl   $0x313,-0x14(%ebp)

00000f8b <.L17>:
     f8b:	81 45 ec ec 01 00 00 	addl   $0x1ec,-0x14(%ebp)

00000f92 <.L18>:
     f92:	81 6d ec 47 01 00 00 	subl   $0x147,-0x14(%ebp)

00000f99 <.L19>:
     f99:	81 45 ec 47 01 00 00 	addl   $0x147,-0x14(%ebp)

00000fa0 <.L20>:
     fa0:	81 6d ec 47 01 00 00 	subl   $0x147,-0x14(%ebp)

00000fa7 <.L21>:
     fa7:	81 45 ec 47 01 00 00 	addl   $0x147,-0x14(%ebp)

00000fae <.L22>:
     fae:	81 6d ec 47 01 00 00 	subl   $0x147,-0x14(%ebp)
     fb5:	eb 05                	jmp    fbc <.L22+0xe>
     fb7:	e8 90 08 00 00       	call   184c <explode_bomb>
     fbc:	8b 45 e4             	mov    -0x1c(%ebp),%eax
     fbf:	83 f8 05             	cmp    $0x5,%eax
     fc2:	7f 08                	jg     fcc <.L22+0x1e>
     fc4:	8b 45 e8             	mov    -0x18(%ebp),%eax
     fc7:	39 45 ec             	cmp    %eax,-0x14(%ebp)
     fca:	74 05                	je     fd1 <.L22+0x23>
     fcc:	e8 7b 08 00 00       	call   184c <explode_bomb>
     fd1:	90                   	nop
     fd2:	8b 45 f4             	mov    -0xc(%ebp),%eax
     fd5:	65 33 05 14 00 00 00 	xor    %gs:0x14,%eax
     fdc:	74 05                	je     fe3 <.L22+0x35>
     fde:	e8 8d 18 00 00       	call   2870 <__stack_chk_fail_local>
     fe3:	8b 5d fc             	mov    -0x4(%ebp),%ebx
     fe6:	c9                   	leave  
     fe7:	c3                   	ret    

00000fe8 <func4>:
     fe8:	55                   	push   %ebp
     fe9:	89 e5                	mov    %esp,%ebp
     feb:	53                   	push   %ebx
     fec:	83 ec 04             	sub    $0x4,%esp
     fef:	e8 20 04 00 00       	call   1414 <__x86.get_pc_thunk.ax>
     ff4:	05 64 3f 00 00       	add    $0x3f64,%eax
     ff9:	83 7d 08 00          	cmpl   $0x0,0x8(%ebp)
     ffd:	7f 07                	jg     1006 <func4+0x1e>
     fff:	b8 00 00 00 00       	mov    $0x0,%eax
    1004:	eb 3f                	jmp    1045 <func4+0x5d>
    1006:	83 7d 08 01          	cmpl   $0x1,0x8(%ebp)
    100a:	75 05                	jne    1011 <func4+0x29>
    100c:	8b 45 0c             	mov    0xc(%ebp),%eax
    100f:	eb 34                	jmp    1045 <func4+0x5d>
    1011:	8b 45 08             	mov    0x8(%ebp),%eax
    1014:	83 e8 01             	sub    $0x1,%eax
    1017:	83 ec 08             	sub    $0x8,%esp
    101a:	ff 75 0c             	pushl  0xc(%ebp)
    101d:	50                   	push   %eax
    101e:	e8 c5 ff ff ff       	call   fe8 <func4>
    1023:	83 c4 10             	add    $0x10,%esp
    1026:	89 c2                	mov    %eax,%edx
    1028:	8b 45 0c             	mov    0xc(%ebp),%eax
    102b:	8d 1c 02             	lea    (%edx,%eax,1),%ebx
    102e:	8b 45 08             	mov    0x8(%ebp),%eax
    1031:	83 e8 02             	sub    $0x2,%eax
    1034:	83 ec 08             	sub    $0x8,%esp
    1037:	ff 75 0c             	pushl  0xc(%ebp)
    103a:	50                   	push   %eax
    103b:	e8 a8 ff ff ff       	call   fe8 <func4>
    1040:	83 c4 10             	add    $0x10,%esp
    1043:	01 d8                	add    %ebx,%eax
    1045:	8b 5d fc             	mov    -0x4(%ebp),%ebx
    1048:	c9                   	leave  
    1049:	c3                   	ret    

0000104a <phase_4>:
    104a:	55                   	push   %ebp
    104b:	89 e5                	mov    %esp,%ebp
    104d:	53                   	push   %ebx
    104e:	83 ec 34             	sub    $0x34,%esp
    1051:	e8 fa fa ff ff       	call   b50 <__x86.get_pc_thunk.bx>
    1056:	81 c3 02 3f 00 00    	add    $0x3f02,%ebx
    105c:	8b 45 08             	mov    0x8(%ebp),%eax
    105f:	89 45 d4             	mov    %eax,-0x2c(%ebp)
    1062:	65 a1 14 00 00 00    	mov    %gs:0x14,%eax
    1068:	89 45 f4             	mov    %eax,-0xc(%ebp)
    106b:	31 c0                	xor    %eax,%eax
    106d:	8d 45 e0             	lea    -0x20(%ebp),%eax
    1070:	50                   	push   %eax
    1071:	8d 45 e4             	lea    -0x1c(%ebp),%eax
    1074:	50                   	push   %eax
    1075:	8d 83 b5 da ff ff    	lea    -0x254b(%ebx),%eax
    107b:	50                   	push   %eax
    107c:	ff 75 d4             	pushl  -0x2c(%ebp)
    107f:	e8 dc f9 ff ff       	call   a60 <__isoc99_sscanf@plt>
    1084:	83 c4 10             	add    $0x10,%esp
    1087:	89 45 e8             	mov    %eax,-0x18(%ebp)
    108a:	83 7d e8 02          	cmpl   $0x2,-0x18(%ebp)
    108e:	75 10                	jne    10a0 <phase_4+0x56>
    1090:	8b 45 e0             	mov    -0x20(%ebp),%eax
    1093:	83 f8 01             	cmp    $0x1,%eax
    1096:	7e 08                	jle    10a0 <phase_4+0x56>
    1098:	8b 45 e0             	mov    -0x20(%ebp),%eax
    109b:	83 f8 04             	cmp    $0x4,%eax
    109e:	7e 05                	jle    10a5 <phase_4+0x5b>
    10a0:	e8 a7 07 00 00       	call   184c <explode_bomb>
    10a5:	c7 45 ec 06 00 00 00 	movl   $0x6,-0x14(%ebp)
    10ac:	8b 45 e0             	mov    -0x20(%ebp),%eax
    10af:	83 ec 08             	sub    $0x8,%esp
    10b2:	50                   	push   %eax
    10b3:	ff 75 ec             	pushl  -0x14(%ebp)
    10b6:	e8 2d ff ff ff       	call   fe8 <func4>
    10bb:	83 c4 10             	add    $0x10,%esp
    10be:	89 45 f0             	mov    %eax,-0x10(%ebp)
    10c1:	8b 45 e4             	mov    -0x1c(%ebp),%eax
    10c4:	39 45 f0             	cmp    %eax,-0x10(%ebp)
    10c7:	74 05                	je     10ce <phase_4+0x84>
    10c9:	e8 7e 07 00 00       	call   184c <explode_bomb>
    10ce:	90                   	nop
    10cf:	8b 45 f4             	mov    -0xc(%ebp),%eax
    10d2:	65 33 05 14 00 00 00 	xor    %gs:0x14,%eax
    10d9:	74 05                	je     10e0 <phase_4+0x96>
    10db:	e8 90 17 00 00       	call   2870 <__stack_chk_fail_local>
    10e0:	8b 5d fc             	mov    -0x4(%ebp),%ebx
    10e3:	c9                   	leave  
    10e4:	c3                   	ret    

000010e5 <phase_5>:
    10e5:	55                   	push   %ebp
    10e6:	89 e5                	mov    %esp,%ebp
    10e8:	53                   	push   %ebx
    10e9:	83 ec 34             	sub    $0x34,%esp
    10ec:	e8 5f fa ff ff       	call   b50 <__x86.get_pc_thunk.bx>
    10f1:	81 c3 67 3e 00 00    	add    $0x3e67,%ebx
    10f7:	8b 45 08             	mov    0x8(%ebp),%eax
    10fa:	89 45 d4             	mov    %eax,-0x2c(%ebp)
    10fd:	65 a1 14 00 00 00    	mov    %gs:0x14,%eax
    1103:	89 45 f4             	mov    %eax,-0xc(%ebp)
    1106:	31 c0                	xor    %eax,%eax
    1108:	83 ec 0c             	sub    $0xc,%esp
    110b:	ff 75 d4             	pushl  -0x2c(%ebp)
    110e:	e8 1a 04 00 00       	call   152d <string_length>
    1113:	83 c4 10             	add    $0x10,%esp
    1116:	89 45 e8             	mov    %eax,-0x18(%ebp)
    1119:	83 7d e8 06          	cmpl   $0x6,-0x18(%ebp)
    111d:	74 05                	je     1124 <phase_5+0x3f>
    111f:	e8 28 07 00 00       	call   184c <explode_bomb>
    1124:	c7 45 e4 00 00 00 00 	movl   $0x0,-0x1c(%ebp)
    112b:	eb 27                	jmp    1154 <phase_5+0x6f>
    112d:	8b 55 e4             	mov    -0x1c(%ebp),%edx
    1130:	8b 45 d4             	mov    -0x2c(%ebp),%eax
    1133:	01 d0                	add    %edx,%eax
    1135:	0f b6 00             	movzbl (%eax),%eax
    1138:	0f be c0             	movsbl %al,%eax
    113b:	83 e0 0f             	and    $0xf,%eax
    113e:	0f b6 84 03 20 01 00 	movzbl 0x120(%ebx,%eax,1),%eax
    1145:	00 
    1146:	8d 4d ed             	lea    -0x13(%ebp),%ecx
    1149:	8b 55 e4             	mov    -0x1c(%ebp),%edx
    114c:	01 ca                	add    %ecx,%edx
    114e:	88 02                	mov    %al,(%edx)
    1150:	83 45 e4 01          	addl   $0x1,-0x1c(%ebp)
    1154:	83 7d e4 05          	cmpl   $0x5,-0x1c(%ebp)
    1158:	7e d3                	jle    112d <phase_5+0x48>
    115a:	c6 45 f3 00          	movb   $0x0,-0xd(%ebp)
    115e:	83 ec 08             	sub    $0x8,%esp
    1161:	8d 83 dc da ff ff    	lea    -0x2524(%ebx),%eax
    1167:	50                   	push   %eax
    1168:	8d 45 ed             	lea    -0x13(%ebp),%eax
    116b:	50                   	push   %eax
    116c:	e8 f2 03 00 00       	call   1563 <strings_not_equal>
    1171:	83 c4 10             	add    $0x10,%esp
    1174:	85 c0                	test   %eax,%eax
    1176:	74 05                	je     117d <phase_5+0x98>
    1178:	e8 cf 06 00 00       	call   184c <explode_bomb>
    117d:	90                   	nop
    117e:	8b 45 f4             	mov    -0xc(%ebp),%eax
    1181:	65 33 05 14 00 00 00 	xor    %gs:0x14,%eax
    1188:	74 05                	je     118f <phase_5+0xaa>
    118a:	e8 e1 16 00 00       	call   2870 <__stack_chk_fail_local>
    118f:	8b 5d fc             	mov    -0x4(%ebp),%ebx
    1192:	c9                   	leave  
    1193:	c3                   	ret    

00001194 <phase_6>:
    1194:	55                   	push   %ebp
    1195:	89 e5                	mov    %esp,%ebp
    1197:	53                   	push   %ebx
    1198:	83 ec 64             	sub    $0x64,%esp
    119b:	e8 b0 f9 ff ff       	call   b50 <__x86.get_pc_thunk.bx>
    11a0:	81 c3 b8 3d 00 00    	add    $0x3db8,%ebx
    11a6:	8b 45 08             	mov    0x8(%ebp),%eax
    11a9:	89 45 a4             	mov    %eax,-0x5c(%ebp)
    11ac:	65 a1 14 00 00 00    	mov    %gs:0x14,%eax
    11b2:	89 45 f4             	mov    %eax,-0xc(%ebp)
    11b5:	31 c0                	xor    %eax,%eax
    11b7:	8d 83 60 01 00 00    	lea    0x160(%ebx),%eax
    11bd:	89 45 c0             	mov    %eax,-0x40(%ebp)
    11c0:	83 ec 08             	sub    $0x8,%esp
    11c3:	8d 45 c4             	lea    -0x3c(%ebp),%eax
    11c6:	50                   	push   %eax
    11c7:	ff 75 a4             	pushl  -0x5c(%ebp)
    11ca:	e8 fa 02 00 00       	call   14c9 <read_six_numbers>
    11cf:	83 c4 10             	add    $0x10,%esp
    11d2:	c7 45 b8 00 00 00 00 	movl   $0x0,-0x48(%ebp)
    11d9:	eb 4c                	jmp    1227 <phase_6+0x93>
    11db:	8b 45 b8             	mov    -0x48(%ebp),%eax
    11de:	8b 44 85 c4          	mov    -0x3c(%ebp,%eax,4),%eax
    11e2:	85 c0                	test   %eax,%eax
    11e4:	7e 0c                	jle    11f2 <phase_6+0x5e>
    11e6:	8b 45 b8             	mov    -0x48(%ebp),%eax
    11e9:	8b 44 85 c4          	mov    -0x3c(%ebp,%eax,4),%eax
    11ed:	83 f8 06             	cmp    $0x6,%eax
    11f0:	7e 05                	jle    11f7 <phase_6+0x63>
    11f2:	e8 55 06 00 00       	call   184c <explode_bomb>
    11f7:	8b 45 b8             	mov    -0x48(%ebp),%eax
    11fa:	83 c0 01             	add    $0x1,%eax
    11fd:	89 45 bc             	mov    %eax,-0x44(%ebp)
    1200:	eb 1b                	jmp    121d <phase_6+0x89>
    1202:	8b 45 b8             	mov    -0x48(%ebp),%eax
    1205:	8b 54 85 c4          	mov    -0x3c(%ebp,%eax,4),%edx
    1209:	8b 45 bc             	mov    -0x44(%ebp),%eax
    120c:	8b 44 85 c4          	mov    -0x3c(%ebp,%eax,4),%eax
    1210:	39 c2                	cmp    %eax,%edx
    1212:	75 05                	jne    1219 <phase_6+0x85>
    1214:	e8 33 06 00 00       	call   184c <explode_bomb>
    1219:	83 45 bc 01          	addl   $0x1,-0x44(%ebp)
    121d:	83 7d bc 05          	cmpl   $0x5,-0x44(%ebp)
    1221:	7e df                	jle    1202 <phase_6+0x6e>
    1223:	83 45 b8 01          	addl   $0x1,-0x48(%ebp)
    1227:	83 7d b8 05          	cmpl   $0x5,-0x48(%ebp)
    122b:	7e ae                	jle    11db <phase_6+0x47>
    122d:	c7 45 b8 00 00 00 00 	movl   $0x0,-0x48(%ebp)
    1234:	eb 19                	jmp    124f <phase_6+0xbb>
    1236:	8b 45 b8             	mov    -0x48(%ebp),%eax
    1239:	8b 44 85 c4          	mov    -0x3c(%ebp,%eax,4),%eax
    123d:	ba 07 00 00 00       	mov    $0x7,%edx
    1242:	29 c2                	sub    %eax,%edx
    1244:	8b 45 b8             	mov    -0x48(%ebp),%eax
    1247:	89 54 85 c4          	mov    %edx,-0x3c(%ebp,%eax,4)
    124b:	83 45 b8 01          	addl   $0x1,-0x48(%ebp)
    124f:	83 7d b8 05          	cmpl   $0x5,-0x48(%ebp)
    1253:	7e e1                	jle    1236 <phase_6+0xa2>
    1255:	c7 45 b8 00 00 00 00 	movl   $0x0,-0x48(%ebp)
    125c:	eb 36                	jmp    1294 <phase_6+0x100>
    125e:	8b 45 c0             	mov    -0x40(%ebp),%eax
    1261:	89 45 b4             	mov    %eax,-0x4c(%ebp)
    1264:	c7 45 bc 01 00 00 00 	movl   $0x1,-0x44(%ebp)
    126b:	eb 0d                	jmp    127a <phase_6+0xe6>
    126d:	8b 45 b4             	mov    -0x4c(%ebp),%eax
    1270:	8b 40 08             	mov    0x8(%eax),%eax
    1273:	89 45 b4             	mov    %eax,-0x4c(%ebp)
    1276:	83 45 bc 01          	addl   $0x1,-0x44(%ebp)
    127a:	8b 45 b8             	mov    -0x48(%ebp),%eax
    127d:	8b 44 85 c4          	mov    -0x3c(%ebp,%eax,4),%eax
    1281:	39 45 bc             	cmp    %eax,-0x44(%ebp)
    1284:	7c e7                	jl     126d <phase_6+0xd9>
    1286:	8b 45 b8             	mov    -0x48(%ebp),%eax
    1289:	8b 55 b4             	mov    -0x4c(%ebp),%edx
    128c:	89 54 85 dc          	mov    %edx,-0x24(%ebp,%eax,4)
    1290:	83 45 b8 01          	addl   $0x1,-0x48(%ebp)
    1294:	83 7d b8 05          	cmpl   $0x5,-0x48(%ebp)
    1298:	7e c4                	jle    125e <phase_6+0xca>
    129a:	8b 45 dc             	mov    -0x24(%ebp),%eax
    129d:	89 45 c0             	mov    %eax,-0x40(%ebp)
    12a0:	8b 45 c0             	mov    -0x40(%ebp),%eax
    12a3:	89 45 b4             	mov    %eax,-0x4c(%ebp)
    12a6:	c7 45 b8 01 00 00 00 	movl   $0x1,-0x48(%ebp)
    12ad:	eb 1a                	jmp    12c9 <phase_6+0x135>
    12af:	8b 45 b8             	mov    -0x48(%ebp),%eax
    12b2:	8b 54 85 dc          	mov    -0x24(%ebp,%eax,4),%edx
    12b6:	8b 45 b4             	mov    -0x4c(%ebp),%eax
    12b9:	89 50 08             	mov    %edx,0x8(%eax)
    12bc:	8b 45 b4             	mov    -0x4c(%ebp),%eax
    12bf:	8b 40 08             	mov    0x8(%eax),%eax
    12c2:	89 45 b4             	mov    %eax,-0x4c(%ebp)
    12c5:	83 45 b8 01          	addl   $0x1,-0x48(%ebp)
    12c9:	83 7d b8 05          	cmpl   $0x5,-0x48(%ebp)
    12cd:	7e e0                	jle    12af <phase_6+0x11b>
    12cf:	8b 45 b4             	mov    -0x4c(%ebp),%eax
    12d2:	c7 40 08 00 00 00 00 	movl   $0x0,0x8(%eax)
    12d9:	8b 45 c0             	mov    -0x40(%ebp),%eax
    12dc:	89 45 b4             	mov    %eax,-0x4c(%ebp)
    12df:	c7 45 b8 00 00 00 00 	movl   $0x0,-0x48(%ebp)
    12e6:	eb 23                	jmp    130b <phase_6+0x177>
    12e8:	8b 45 b4             	mov    -0x4c(%ebp),%eax
    12eb:	8b 10                	mov    (%eax),%edx
    12ed:	8b 45 b4             	mov    -0x4c(%ebp),%eax
    12f0:	8b 40 08             	mov    0x8(%eax),%eax
    12f3:	8b 00                	mov    (%eax),%eax
    12f5:	39 c2                	cmp    %eax,%edx
    12f7:	7d 05                	jge    12fe <phase_6+0x16a>
    12f9:	e8 4e 05 00 00       	call   184c <explode_bomb>
    12fe:	8b 45 b4             	mov    -0x4c(%ebp),%eax
    1301:	8b 40 08             	mov    0x8(%eax),%eax
    1304:	89 45 b4             	mov    %eax,-0x4c(%ebp)
    1307:	83 45 b8 01          	addl   $0x1,-0x48(%ebp)
    130b:	83 7d b8 04          	cmpl   $0x4,-0x48(%ebp)
    130f:	7e d7                	jle    12e8 <phase_6+0x154>
    1311:	90                   	nop
    1312:	8b 45 f4             	mov    -0xc(%ebp),%eax
    1315:	65 33 05 14 00 00 00 	xor    %gs:0x14,%eax
    131c:	74 05                	je     1323 <phase_6+0x18f>
    131e:	e8 4d 15 00 00       	call   2870 <__stack_chk_fail_local>
    1323:	8b 5d fc             	mov    -0x4(%ebp),%ebx
    1326:	c9                   	leave  
    1327:	c3                   	ret    

00001328 <fun7>:
    1328:	55                   	push   %ebp
    1329:	89 e5                	mov    %esp,%ebp
    132b:	83 ec 08             	sub    $0x8,%esp
    132e:	e8 e1 00 00 00       	call   1414 <__x86.get_pc_thunk.ax>
    1333:	05 25 3c 00 00       	add    $0x3c25,%eax
    1338:	83 7d 08 00          	cmpl   $0x0,0x8(%ebp)
    133c:	75 07                	jne    1345 <fun7+0x1d>
    133e:	b8 ff ff ff ff       	mov    $0xffffffff,%eax
    1343:	eb 4e                	jmp    1393 <fun7+0x6b>
    1345:	8b 45 08             	mov    0x8(%ebp),%eax
    1348:	8b 00                	mov    (%eax),%eax
    134a:	39 45 0c             	cmp    %eax,0xc(%ebp)
    134d:	7d 19                	jge    1368 <fun7+0x40>
    134f:	8b 45 08             	mov    0x8(%ebp),%eax
    1352:	8b 40 04             	mov    0x4(%eax),%eax
    1355:	83 ec 08             	sub    $0x8,%esp
    1358:	ff 75 0c             	pushl  0xc(%ebp)
    135b:	50                   	push   %eax
    135c:	e8 c7 ff ff ff       	call   1328 <fun7>
    1361:	83 c4 10             	add    $0x10,%esp
    1364:	01 c0                	add    %eax,%eax
    1366:	eb 2b                	jmp    1393 <fun7+0x6b>
    1368:	8b 45 08             	mov    0x8(%ebp),%eax
    136b:	8b 00                	mov    (%eax),%eax
    136d:	39 45 0c             	cmp    %eax,0xc(%ebp)
    1370:	75 07                	jne    1379 <fun7+0x51>
    1372:	b8 00 00 00 00       	mov    $0x0,%eax
    1377:	eb 1a                	jmp    1393 <fun7+0x6b>
    1379:	8b 45 08             	mov    0x8(%ebp),%eax
    137c:	8b 40 08             	mov    0x8(%eax),%eax
    137f:	83 ec 08             	sub    $0x8,%esp
    1382:	ff 75 0c             	pushl  0xc(%ebp)
    1385:	50                   	push   %eax
    1386:	e8 9d ff ff ff       	call   1328 <fun7>
    138b:	83 c4 10             	add    $0x10,%esp
    138e:	01 c0                	add    %eax,%eax
    1390:	83 c0 01             	add    $0x1,%eax
    1393:	c9                   	leave  
    1394:	c3                   	ret    

00001395 <secret_phase>:
    1395:	55                   	push   %ebp
    1396:	89 e5                	mov    %esp,%ebp
    1398:	53                   	push   %ebx
    1399:	83 ec 14             	sub    $0x14,%esp
    139c:	e8 af f7 ff ff       	call   b50 <__x86.get_pc_thunk.bx>
    13a1:	81 c3 b7 3b 00 00    	add    $0x3bb7,%ebx
    13a7:	e8 26 03 00 00       	call   16d2 <read_line>
    13ac:	89 45 ec             	mov    %eax,-0x14(%ebp)
    13af:	83 ec 0c             	sub    $0xc,%esp
    13b2:	ff 75 ec             	pushl  -0x14(%ebp)
    13b5:	e8 e6 f6 ff ff       	call   aa0 <atoi@plt>
    13ba:	83 c4 10             	add    $0x10,%esp
    13bd:	89 45 f0             	mov    %eax,-0x10(%ebp)
    13c0:	83 7d f0 00          	cmpl   $0x0,-0x10(%ebp)
    13c4:	7e 09                	jle    13cf <secret_phase+0x3a>
    13c6:	81 7d f0 e9 03 00 00 	cmpl   $0x3e9,-0x10(%ebp)
    13cd:	7e 05                	jle    13d4 <secret_phase+0x3f>
    13cf:	e8 78 04 00 00       	call   184c <explode_bomb>
    13d4:	83 ec 08             	sub    $0x8,%esp
    13d7:	ff 75 f0             	pushl  -0x10(%ebp)
    13da:	8d 83 b4 01 00 00    	lea    0x1b4(%ebx),%eax
    13e0:	50                   	push   %eax
    13e1:	e8 42 ff ff ff       	call   1328 <fun7>
    13e6:	83 c4 10             	add    $0x10,%esp
    13e9:	89 45 f4             	mov    %eax,-0xc(%ebp)
    13ec:	83 7d f4 07          	cmpl   $0x7,-0xc(%ebp)
    13f0:	74 05                	je     13f7 <secret_phase+0x62>
    13f2:	e8 55 04 00 00       	call   184c <explode_bomb>
    13f7:	83 ec 0c             	sub    $0xc,%esp
    13fa:	8d 83 e4 da ff ff    	lea    -0x251c(%ebx),%eax
    1400:	50                   	push   %eax
    1401:	e8 fa f5 ff ff       	call   a00 <puts@plt>
    1406:	83 c4 10             	add    $0x10,%esp
    1409:	e8 7e 04 00 00       	call   188c <phase_defused>
    140e:	90                   	nop
    140f:	8b 5d fc             	mov    -0x4(%ebp),%ebx
    1412:	c9                   	leave  
    1413:	c3                   	ret    

00001414 <__x86.get_pc_thunk.ax>:
    1414:	8b 04 24             	mov    (%esp),%eax
    1417:	c3                   	ret    

00001418 <sig_handler>:
    1418:	55                   	push   %ebp
    1419:	89 e5                	mov    %esp,%ebp
    141b:	53                   	push   %ebx
    141c:	83 ec 04             	sub    $0x4,%esp
    141f:	e8 2c f7 ff ff       	call   b50 <__x86.get_pc_thunk.bx>
    1424:	81 c3 34 3b 00 00    	add    $0x3b34,%ebx
    142a:	83 ec 0c             	sub    $0xc,%esp
    142d:	8d 83 74 db ff ff    	lea    -0x248c(%ebx),%eax
    1433:	50                   	push   %eax
    1434:	e8 c7 f5 ff ff       	call   a00 <puts@plt>
    1439:	83 c4 10             	add    $0x10,%esp
    143c:	83 ec 0c             	sub    $0xc,%esp
    143f:	6a 03                	push   $0x3
    1441:	e8 4a f5 ff ff       	call   990 <sleep@plt>
    1446:	83 c4 10             	add    $0x10,%esp
    1449:	83 ec 0c             	sub    $0xc,%esp
    144c:	8d 83 ac db ff ff    	lea    -0x2454(%ebx),%eax
    1452:	50                   	push   %eax
    1453:	e8 d8 f4 ff ff       	call   930 <printf@plt>
    1458:	83 c4 10             	add    $0x10,%esp
    145b:	8b 83 9c 00 00 00    	mov    0x9c(%ebx),%eax
    1461:	8b 00                	mov    (%eax),%eax
    1463:	83 ec 0c             	sub    $0xc,%esp
    1466:	50                   	push   %eax
    1467:	e8 d4 f4 ff ff       	call   940 <fflush@plt>
    146c:	83 c4 10             	add    $0x10,%esp
    146f:	83 ec 0c             	sub    $0xc,%esp
    1472:	6a 01                	push   $0x1
    1474:	e8 17 f5 ff ff       	call   990 <sleep@plt>
    1479:	83 c4 10             	add    $0x10,%esp
    147c:	83 ec 0c             	sub    $0xc,%esp
    147f:	8d 83 b4 db ff ff    	lea    -0x244c(%ebx),%eax
    1485:	50                   	push   %eax
    1486:	e8 75 f5 ff ff       	call   a00 <puts@plt>
    148b:	83 c4 10             	add    $0x10,%esp
    148e:	83 ec 0c             	sub    $0xc,%esp
    1491:	6a 10                	push   $0x10
    1493:	e8 78 f5 ff ff       	call   a10 <exit@plt>

00001498 <invalid_phase>:
    1498:	55                   	push   %ebp
    1499:	89 e5                	mov    %esp,%ebp
    149b:	53                   	push   %ebx
    149c:	83 ec 04             	sub    $0x4,%esp
    149f:	e8 ac f6 ff ff       	call   b50 <__x86.get_pc_thunk.bx>
    14a4:	81 c3 b4 3a 00 00    	add    $0x3ab4,%ebx
    14aa:	83 ec 08             	sub    $0x8,%esp
    14ad:	ff 75 08             	pushl  0x8(%ebp)
    14b0:	8d 83 bc db ff ff    	lea    -0x2444(%ebx),%eax
    14b6:	50                   	push   %eax
    14b7:	e8 74 f4 ff ff       	call   930 <printf@plt>
    14bc:	83 c4 10             	add    $0x10,%esp
    14bf:	83 ec 0c             	sub    $0xc,%esp
    14c2:	6a 08                	push   $0x8
    14c4:	e8 47 f5 ff ff       	call   a10 <exit@plt>

000014c9 <read_six_numbers>:
    14c9:	55                   	push   %ebp
    14ca:	89 e5                	mov    %esp,%ebp
    14cc:	57                   	push   %edi
    14cd:	56                   	push   %esi
    14ce:	53                   	push   %ebx
    14cf:	83 ec 1c             	sub    $0x1c,%esp
    14d2:	e8 3d ff ff ff       	call   1414 <__x86.get_pc_thunk.ax>
    14d7:	05 81 3a 00 00       	add    $0x3a81,%eax
    14dc:	8b 55 0c             	mov    0xc(%ebp),%edx
    14df:	8d 7a 14             	lea    0x14(%edx),%edi
    14e2:	8b 55 0c             	mov    0xc(%ebp),%edx
    14e5:	8d 72 10             	lea    0x10(%edx),%esi
    14e8:	8b 55 0c             	mov    0xc(%ebp),%edx
    14eb:	8d 5a 0c             	lea    0xc(%edx),%ebx
    14ee:	8b 55 0c             	mov    0xc(%ebp),%edx
    14f1:	8d 4a 08             	lea    0x8(%edx),%ecx
    14f4:	8b 55 0c             	mov    0xc(%ebp),%edx
    14f7:	83 c2 04             	add    $0x4,%edx
    14fa:	57                   	push   %edi
    14fb:	56                   	push   %esi
    14fc:	53                   	push   %ebx
    14fd:	51                   	push   %ecx
    14fe:	52                   	push   %edx
    14ff:	ff 75 0c             	pushl  0xc(%ebp)
    1502:	8d 90 cd db ff ff    	lea    -0x2433(%eax),%edx
    1508:	52                   	push   %edx
    1509:	ff 75 08             	pushl  0x8(%ebp)
    150c:	89 c3                	mov    %eax,%ebx
    150e:	e8 4d f5 ff ff       	call   a60 <__isoc99_sscanf@plt>
    1513:	83 c4 20             	add    $0x20,%esp
    1516:	89 45 e4             	mov    %eax,-0x1c(%ebp)
    1519:	83 7d e4 05          	cmpl   $0x5,-0x1c(%ebp)
    151d:	7f 05                	jg     1524 <read_six_numbers+0x5b>
    151f:	e8 28 03 00 00       	call   184c <explode_bomb>
    1524:	90                   	nop
    1525:	8d 65 f4             	lea    -0xc(%ebp),%esp
    1528:	5b                   	pop    %ebx
    1529:	5e                   	pop    %esi
    152a:	5f                   	pop    %edi
    152b:	5d                   	pop    %ebp
    152c:	c3                   	ret    

0000152d <string_length>:
    152d:	55                   	push   %ebp
    152e:	89 e5                	mov    %esp,%ebp
    1530:	83 ec 10             	sub    $0x10,%esp
    1533:	e8 dc fe ff ff       	call   1414 <__x86.get_pc_thunk.ax>
    1538:	05 20 3a 00 00       	add    $0x3a20,%eax
    153d:	8b 45 08             	mov    0x8(%ebp),%eax
    1540:	89 45 fc             	mov    %eax,-0x4(%ebp)
    1543:	c7 45 f8 00 00 00 00 	movl   $0x0,-0x8(%ebp)
    154a:	eb 08                	jmp    1554 <string_length+0x27>
    154c:	83 45 fc 01          	addl   $0x1,-0x4(%ebp)
    1550:	83 45 f8 01          	addl   $0x1,-0x8(%ebp)
    1554:	8b 45 fc             	mov    -0x4(%ebp),%eax
    1557:	0f b6 00             	movzbl (%eax),%eax
    155a:	84 c0                	test   %al,%al
    155c:	75 ee                	jne    154c <string_length+0x1f>
    155e:	8b 45 f8             	mov    -0x8(%ebp),%eax
    1561:	c9                   	leave  
    1562:	c3                   	ret    

00001563 <strings_not_equal>:
    1563:	55                   	push   %ebp
    1564:	89 e5                	mov    %esp,%ebp
    1566:	53                   	push   %ebx
    1567:	83 ec 10             	sub    $0x10,%esp
    156a:	e8 a5 fe ff ff       	call   1414 <__x86.get_pc_thunk.ax>
    156f:	05 e9 39 00 00       	add    $0x39e9,%eax
    1574:	ff 75 08             	pushl  0x8(%ebp)
    1577:	e8 b1 ff ff ff       	call   152d <string_length>
    157c:	83 c4 04             	add    $0x4,%esp
    157f:	89 c3                	mov    %eax,%ebx
    1581:	ff 75 0c             	pushl  0xc(%ebp)
    1584:	e8 a4 ff ff ff       	call   152d <string_length>
    1589:	83 c4 04             	add    $0x4,%esp
    158c:	39 c3                	cmp    %eax,%ebx
    158e:	74 07                	je     1597 <strings_not_equal+0x34>
    1590:	b8 01 00 00 00       	mov    $0x1,%eax
    1595:	eb 3c                	jmp    15d3 <strings_not_equal+0x70>
    1597:	8b 45 08             	mov    0x8(%ebp),%eax
    159a:	89 45 f4             	mov    %eax,-0xc(%ebp)
    159d:	8b 45 0c             	mov    0xc(%ebp),%eax
    15a0:	89 45 f8             	mov    %eax,-0x8(%ebp)
    15a3:	eb 1f                	jmp    15c4 <strings_not_equal+0x61>
    15a5:	8b 45 f4             	mov    -0xc(%ebp),%eax
    15a8:	0f b6 10             	movzbl (%eax),%edx
    15ab:	8b 45 f8             	mov    -0x8(%ebp),%eax
    15ae:	0f b6 00             	movzbl (%eax),%eax
    15b1:	38 c2                	cmp    %al,%dl
    15b3:	74 07                	je     15bc <strings_not_equal+0x59>
    15b5:	b8 01 00 00 00       	mov    $0x1,%eax
    15ba:	eb 17                	jmp    15d3 <strings_not_equal+0x70>
    15bc:	83 45 f4 01          	addl   $0x1,-0xc(%ebp)
    15c0:	83 45 f8 01          	addl   $0x1,-0x8(%ebp)
    15c4:	8b 45 f4             	mov    -0xc(%ebp),%eax
    15c7:	0f b6 00             	movzbl (%eax),%eax
    15ca:	84 c0                	test   %al,%al
    15cc:	75 d7                	jne    15a5 <strings_not_equal+0x42>
    15ce:	b8 00 00 00 00       	mov    $0x0,%eax
    15d3:	8b 5d fc             	mov    -0x4(%ebp),%ebx
    15d6:	c9                   	leave  
    15d7:	c3                   	ret    

000015d8 <initialize_bomb>:
    15d8:	55                   	push   %ebp
    15d9:	89 e5                	mov    %esp,%ebp
    15db:	53                   	push   %ebx
    15dc:	83 ec 04             	sub    $0x4,%esp
    15df:	e8 30 fe ff ff       	call   1414 <__x86.get_pc_thunk.ax>
    15e4:	05 74 39 00 00       	add    $0x3974,%eax
    15e9:	83 ec 08             	sub    $0x8,%esp
    15ec:	8d 90 c0 c4 ff ff    	lea    -0x3b40(%eax),%edx
    15f2:	52                   	push   %edx
    15f3:	6a 02                	push   $0x2
    15f5:	89 c3                	mov    %eax,%ebx
    15f7:	e8 84 f3 ff ff       	call   980 <signal@plt>
    15fc:	83 c4 10             	add    $0x10,%esp
    15ff:	90                   	nop
    1600:	8b 5d fc             	mov    -0x4(%ebp),%ebx
    1603:	c9                   	leave  
    1604:	c3                   	ret    

00001605 <initialize_bomb_solve>:
    1605:	55                   	push   %ebp
    1606:	89 e5                	mov    %esp,%ebp
    1608:	e8 07 fe ff ff       	call   1414 <__x86.get_pc_thunk.ax>
    160d:	05 4b 39 00 00       	add    $0x394b,%eax
    1612:	90                   	nop
    1613:	5d                   	pop    %ebp
    1614:	c3                   	ret    

00001615 <blank_line>:
    1615:	55                   	push   %ebp
    1616:	89 e5                	mov    %esp,%ebp
    1618:	53                   	push   %ebx
    1619:	83 ec 04             	sub    $0x4,%esp
    161c:	e8 2f f5 ff ff       	call   b50 <__x86.get_pc_thunk.bx>
    1621:	81 c3 37 39 00 00    	add    $0x3937,%ebx
    1627:	eb 30                	jmp    1659 <blank_line+0x44>
    1629:	e8 c2 f4 ff ff       	call   af0 <__ctype_b_loc@plt>
    162e:	8b 08                	mov    (%eax),%ecx
    1630:	8b 45 08             	mov    0x8(%ebp),%eax
    1633:	8d 50 01             	lea    0x1(%eax),%edx
    1636:	89 55 08             	mov    %edx,0x8(%ebp)
    1639:	0f b6 00             	movzbl (%eax),%eax
    163c:	0f be c0             	movsbl %al,%eax
    163f:	01 c0                	add    %eax,%eax
    1641:	01 c8                	add    %ecx,%eax
    1643:	0f b7 00             	movzwl (%eax),%eax
    1646:	0f b7 c0             	movzwl %ax,%eax
    1649:	25 00 20 00 00       	and    $0x2000,%eax
    164e:	85 c0                	test   %eax,%eax
    1650:	75 07                	jne    1659 <blank_line+0x44>
    1652:	b8 00 00 00 00       	mov    $0x0,%eax
    1657:	eb 0f                	jmp    1668 <blank_line+0x53>
    1659:	8b 45 08             	mov    0x8(%ebp),%eax
    165c:	0f b6 00             	movzbl (%eax),%eax
    165f:	84 c0                	test   %al,%al
    1661:	75 c6                	jne    1629 <blank_line+0x14>
    1663:	b8 01 00 00 00       	mov    $0x1,%eax
    1668:	83 c4 04             	add    $0x4,%esp
    166b:	5b                   	pop    %ebx
    166c:	5d                   	pop    %ebp
    166d:	c3                   	ret    

0000166e <skip>:
    166e:	55                   	push   %ebp
    166f:	89 e5                	mov    %esp,%ebp
    1671:	53                   	push   %ebx
    1672:	83 ec 14             	sub    $0x14,%esp
    1675:	e8 d6 f4 ff ff       	call   b50 <__x86.get_pc_thunk.bx>
    167a:	81 c3 de 38 00 00    	add    $0x38de,%ebx
    1680:	8d 83 d0 03 00 00    	lea    0x3d0(%ebx),%eax
    1686:	8b 08                	mov    (%eax),%ecx
    1688:	8b 93 cc 03 00 00    	mov    0x3cc(%ebx),%edx
    168e:	89 d0                	mov    %edx,%eax
    1690:	c1 e0 02             	shl    $0x2,%eax
    1693:	01 d0                	add    %edx,%eax
    1695:	c1 e0 04             	shl    $0x4,%eax
    1698:	8d 93 e8 03 00 00    	lea    0x3e8(%ebx),%edx
    169e:	01 d0                	add    %edx,%eax
    16a0:	83 ec 04             	sub    $0x4,%esp
    16a3:	51                   	push   %ecx
    16a4:	6a 50                	push   $0x50
    16a6:	50                   	push   %eax
    16a7:	e8 c4 f2 ff ff       	call   970 <fgets@plt>
    16ac:	83 c4 10             	add    $0x10,%esp
    16af:	89 45 f4             	mov    %eax,-0xc(%ebp)
    16b2:	83 7d f4 00          	cmpl   $0x0,-0xc(%ebp)
    16b6:	74 12                	je     16ca <skip+0x5c>
    16b8:	83 ec 0c             	sub    $0xc,%esp
    16bb:	ff 75 f4             	pushl  -0xc(%ebp)
    16be:	e8 52 ff ff ff       	call   1615 <blank_line>
    16c3:	83 c4 10             	add    $0x10,%esp
    16c6:	85 c0                	test   %eax,%eax
    16c8:	75 b6                	jne    1680 <skip+0x12>
    16ca:	8b 45 f4             	mov    -0xc(%ebp),%eax
    16cd:	8b 5d fc             	mov    -0x4(%ebp),%ebx
    16d0:	c9                   	leave  
    16d1:	c3                   	ret    

000016d2 <read_line>:
    16d2:	55                   	push   %ebp
    16d3:	89 e5                	mov    %esp,%ebp
    16d5:	56                   	push   %esi
    16d6:	53                   	push   %ebx
    16d7:	83 ec 10             	sub    $0x10,%esp
    16da:	e8 71 f4 ff ff       	call   b50 <__x86.get_pc_thunk.bx>
    16df:	81 c3 79 38 00 00    	add    $0x3879,%ebx
    16e5:	e8 84 ff ff ff       	call   166e <skip>
    16ea:	89 45 f0             	mov    %eax,-0x10(%ebp)
    16ed:	83 7d f0 00          	cmpl   $0x0,-0x10(%ebp)
    16f1:	0f 85 8a 00 00 00    	jne    1781 <read_line+0xaf>
    16f7:	8d 83 d0 03 00 00    	lea    0x3d0(%ebx),%eax
    16fd:	8b 10                	mov    (%eax),%edx
    16ff:	8b 83 98 00 00 00    	mov    0x98(%ebx),%eax
    1705:	8b 00                	mov    (%eax),%eax
    1707:	39 c2                	cmp    %eax,%edx
    1709:	75 1c                	jne    1727 <read_line+0x55>
    170b:	83 ec 0c             	sub    $0xc,%esp
    170e:	8d 83 df db ff ff    	lea    -0x2421(%ebx),%eax
    1714:	50                   	push   %eax
    1715:	e8 e6 f2 ff ff       	call   a00 <puts@plt>
    171a:	83 c4 10             	add    $0x10,%esp
    171d:	83 ec 0c             	sub    $0xc,%esp
    1720:	6a 08                	push   $0x8
    1722:	e8 e9 f2 ff ff       	call   a10 <exit@plt>
    1727:	83 ec 0c             	sub    $0xc,%esp
    172a:	8d 83 fd db ff ff    	lea    -0x2403(%ebx),%eax
    1730:	50                   	push   %eax
    1731:	e8 ba f2 ff ff       	call   9f0 <getenv@plt>
    1736:	83 c4 10             	add    $0x10,%esp
    1739:	85 c0                	test   %eax,%eax
    173b:	74 0a                	je     1747 <read_line+0x75>
    173d:	83 ec 0c             	sub    $0xc,%esp
    1740:	6a 00                	push   $0x0
    1742:	e8 c9 f2 ff ff       	call   a10 <exit@plt>
    1747:	8b 83 98 00 00 00    	mov    0x98(%ebx),%eax
    174d:	8b 10                	mov    (%eax),%edx
    174f:	8d 83 d0 03 00 00    	lea    0x3d0(%ebx),%eax
    1755:	89 10                	mov    %edx,(%eax)
    1757:	e8 12 ff ff ff       	call   166e <skip>
    175c:	89 45 f0             	mov    %eax,-0x10(%ebp)
    175f:	83 7d f0 00          	cmpl   $0x0,-0x10(%ebp)
    1763:	75 1c                	jne    1781 <read_line+0xaf>
    1765:	83 ec 0c             	sub    $0xc,%esp
    1768:	8d 83 df db ff ff    	lea    -0x2421(%ebx),%eax
    176e:	50                   	push   %eax
    176f:	e8 8c f2 ff ff       	call   a00 <puts@plt>
    1774:	83 c4 10             	add    $0x10,%esp
    1777:	83 ec 0c             	sub    $0xc,%esp
    177a:	6a 00                	push   $0x0
    177c:	e8 8f f2 ff ff       	call   a10 <exit@plt>
    1781:	8b 93 cc 03 00 00    	mov    0x3cc(%ebx),%edx
    1787:	89 d0                	mov    %edx,%eax
    1789:	c1 e0 02             	shl    $0x2,%eax
    178c:	01 d0                	add    %edx,%eax
    178e:	c1 e0 04             	shl    $0x4,%eax
    1791:	8d 93 e8 03 00 00    	lea    0x3e8(%ebx),%edx
    1797:	01 d0                	add    %edx,%eax
    1799:	83 ec 0c             	sub    $0xc,%esp
    179c:	50                   	push   %eax
    179d:	e8 7e f2 ff ff       	call   a20 <strlen@plt>
    17a2:	83 c4 10             	add    $0x10,%esp
    17a5:	89 45 f4             	mov    %eax,-0xc(%ebp)
    17a8:	83 7d f4 4e          	cmpl   $0x4e,-0xc(%ebp)
    17ac:	7e 53                	jle    1801 <read_line+0x12f>
    17ae:	83 ec 0c             	sub    $0xc,%esp
    17b1:	8d 83 08 dc ff ff    	lea    -0x23f8(%ebx),%eax
    17b7:	50                   	push   %eax
    17b8:	e8 43 f2 ff ff       	call   a00 <puts@plt>
    17bd:	83 c4 10             	add    $0x10,%esp
    17c0:	8b 93 cc 03 00 00    	mov    0x3cc(%ebx),%edx
    17c6:	8d 42 01             	lea    0x1(%edx),%eax
    17c9:	89 83 cc 03 00 00    	mov    %eax,0x3cc(%ebx)
    17cf:	89 d0                	mov    %edx,%eax
    17d1:	c1 e0 02             	shl    $0x2,%eax
    17d4:	01 d0                	add    %edx,%eax
    17d6:	c1 e0 04             	shl    $0x4,%eax
    17d9:	8d 93 e8 03 00 00    	lea    0x3e8(%ebx),%edx
    17df:	01 d0                	add    %edx,%eax
    17e1:	c7 00 2a 2a 2a 74    	movl   $0x742a2a2a,(%eax)
    17e7:	c7 40 04 72 75 6e 63 	movl   $0x636e7572,0x4(%eax)
    17ee:	c7 40 08 61 74 65 64 	movl   $0x64657461,0x8(%eax)
    17f5:	c7 40 0c 2a 2a 2a 00 	movl   $0x2a2a2a,0xc(%eax)
    17fc:	e8 4b 00 00 00       	call   184c <explode_bomb>
    1801:	8b 93 cc 03 00 00    	mov    0x3cc(%ebx),%edx
    1807:	8b 45 f4             	mov    -0xc(%ebp),%eax
    180a:	8d 70 ff             	lea    -0x1(%eax),%esi
    180d:	8d 8b e8 03 00 00    	lea    0x3e8(%ebx),%ecx
    1813:	89 d0                	mov    %edx,%eax
    1815:	c1 e0 02             	shl    $0x2,%eax
    1818:	01 d0                	add    %edx,%eax
    181a:	c1 e0 04             	shl    $0x4,%eax
    181d:	01 c8                	add    %ecx,%eax
    181f:	01 f0                	add    %esi,%eax
    1821:	c6 00 00             	movb   $0x0,(%eax)
    1824:	8b 93 cc 03 00 00    	mov    0x3cc(%ebx),%edx
    182a:	8d 42 01             	lea    0x1(%edx),%eax
    182d:	89 83 cc 03 00 00    	mov    %eax,0x3cc(%ebx)
    1833:	89 d0                	mov    %edx,%eax
    1835:	c1 e0 02             	shl    $0x2,%eax
    1838:	01 d0                	add    %edx,%eax
    183a:	c1 e0 04             	shl    $0x4,%eax
    183d:	8d 93 e8 03 00 00    	lea    0x3e8(%ebx),%edx
    1843:	01 d0                	add    %edx,%eax
    1845:	8d 65 f8             	lea    -0x8(%ebp),%esp
    1848:	5b                   	pop    %ebx
    1849:	5e                   	pop    %esi
    184a:	5d                   	pop    %ebp
    184b:	c3                   	ret    

0000184c <explode_bomb>:
    184c:	55                   	push   %ebp
    184d:	89 e5                	mov    %esp,%ebp
    184f:	53                   	push   %ebx
    1850:	83 ec 04             	sub    $0x4,%esp
    1853:	e8 f8 f2 ff ff       	call   b50 <__x86.get_pc_thunk.bx>
    1858:	81 c3 00 37 00 00    	add    $0x3700,%ebx
    185e:	83 ec 0c             	sub    $0xc,%esp
    1861:	8d 83 23 dc ff ff    	lea    -0x23dd(%ebx),%eax
    1867:	50                   	push   %eax
    1868:	e8 93 f1 ff ff       	call   a00 <puts@plt>
    186d:	83 c4 10             	add    $0x10,%esp
    1870:	83 ec 0c             	sub    $0xc,%esp
    1873:	8d 83 2c dc ff ff    	lea    -0x23d4(%ebx),%eax
    1879:	50                   	push   %eax
    187a:	e8 81 f1 ff ff       	call   a00 <puts@plt>
    187f:	83 c4 10             	add    $0x10,%esp
    1882:	83 ec 0c             	sub    $0xc,%esp
    1885:	6a 08                	push   $0x8
    1887:	e8 84 f1 ff ff       	call   a10 <exit@plt>

0000188c <phase_defused>:
    188c:	55                   	push   %ebp
    188d:	89 e5                	mov    %esp,%ebp
    188f:	53                   	push   %ebx
    1890:	83 ec 64             	sub    $0x64,%esp
    1893:	e8 b8 f2 ff ff       	call   b50 <__x86.get_pc_thunk.bx>
    1898:	81 c3 c0 36 00 00    	add    $0x36c0,%ebx
    189e:	65 a1 14 00 00 00    	mov    %gs:0x14,%eax
    18a4:	89 45 f4             	mov    %eax,-0xc(%ebp)
    18a7:	31 c0                	xor    %eax,%eax
    18a9:	8b 83 cc 03 00 00    	mov    0x3cc(%ebx),%eax
    18af:	83 f8 06             	cmp    $0x6,%eax
    18b2:	0f 85 89 00 00 00    	jne    1941 <phase_defused+0xb5>
    18b8:	83 ec 0c             	sub    $0xc,%esp
    18bb:	8d 45 a4             	lea    -0x5c(%ebp),%eax
    18be:	50                   	push   %eax
    18bf:	8d 45 9c             	lea    -0x64(%ebp),%eax
    18c2:	50                   	push   %eax
    18c3:	8d 45 98             	lea    -0x68(%ebp),%eax
    18c6:	50                   	push   %eax
    18c7:	8d 83 43 dc ff ff    	lea    -0x23bd(%ebx),%eax
    18cd:	50                   	push   %eax
    18ce:	8d 83 e8 03 00 00    	lea    0x3e8(%ebx),%eax
    18d4:	8d 80 f0 00 00 00    	lea    0xf0(%eax),%eax
    18da:	50                   	push   %eax
    18db:	e8 80 f1 ff ff       	call   a60 <__isoc99_sscanf@plt>
    18e0:	83 c4 20             	add    $0x20,%esp
    18e3:	89 45 a0             	mov    %eax,-0x60(%ebp)
    18e6:	83 7d a0 03          	cmpl   $0x3,-0x60(%ebp)
    18ea:	75 43                	jne    192f <phase_defused+0xa3>
    18ec:	83 ec 08             	sub    $0x8,%esp
    18ef:	8d 83 4c dc ff ff    	lea    -0x23b4(%ebx),%eax
    18f5:	50                   	push   %eax
    18f6:	8d 45 a4             	lea    -0x5c(%ebp),%eax
    18f9:	50                   	push   %eax
    18fa:	e8 64 fc ff ff       	call   1563 <strings_not_equal>
    18ff:	83 c4 10             	add    $0x10,%esp
    1902:	85 c0                	test   %eax,%eax
    1904:	75 29                	jne    192f <phase_defused+0xa3>
    1906:	83 ec 0c             	sub    $0xc,%esp
    1909:	8d 83 54 dc ff ff    	lea    -0x23ac(%ebx),%eax
    190f:	50                   	push   %eax
    1910:	e8 eb f0 ff ff       	call   a00 <puts@plt>
    1915:	83 c4 10             	add    $0x10,%esp
    1918:	83 ec 0c             	sub    $0xc,%esp
    191b:	8d 83 7c dc ff ff    	lea    -0x2384(%ebx),%eax
    1921:	50                   	push   %eax
    1922:	e8 d9 f0 ff ff       	call   a00 <puts@plt>
    1927:	83 c4 10             	add    $0x10,%esp
    192a:	e8 66 fa ff ff       	call   1395 <secret_phase>
    192f:	83 ec 0c             	sub    $0xc,%esp
    1932:	8d 83 b4 dc ff ff    	lea    -0x234c(%ebx),%eax
    1938:	50                   	push   %eax
    1939:	e8 c2 f0 ff ff       	call   a00 <puts@plt>
    193e:	83 c4 10             	add    $0x10,%esp
    1941:	90                   	nop
    1942:	8b 45 f4             	mov    -0xc(%ebp),%eax
    1945:	65 33 05 14 00 00 00 	xor    %gs:0x14,%eax
    194c:	74 05                	je     1953 <phase_defused+0xc7>
    194e:	e8 1d 0f 00 00       	call   2870 <__stack_chk_fail_local>
    1953:	8b 5d fc             	mov    -0x4(%ebp),%ebx
    1956:	c9                   	leave  
    1957:	c3                   	ret    

00001958 <sigalrm_handler>:
    1958:	55                   	push   %ebp
    1959:	89 e5                	mov    %esp,%ebp
    195b:	53                   	push   %ebx
    195c:	83 ec 04             	sub    $0x4,%esp
    195f:	e8 ec f1 ff ff       	call   b50 <__x86.get_pc_thunk.bx>
    1964:	81 c3 f4 35 00 00    	add    $0x35f4,%ebx
    196a:	8b 83 8c 00 00 00    	mov    0x8c(%ebx),%eax
    1970:	8b 00                	mov    (%eax),%eax
    1972:	83 ec 04             	sub    $0x4,%esp
    1975:	6a 00                	push   $0x0
    1977:	8d 93 e0 dc ff ff    	lea    -0x2320(%ebx),%edx
    197d:	52                   	push   %edx
    197e:	50                   	push   %eax
    197f:	e8 bc f0 ff ff       	call   a40 <fprintf@plt>
    1984:	83 c4 10             	add    $0x10,%esp
    1987:	83 ec 0c             	sub    $0xc,%esp
    198a:	6a 01                	push   $0x1
    198c:	e8 7f f0 ff ff       	call   a10 <exit@plt>

00001991 <rio_readinitb>:
    1991:	55                   	push   %ebp
    1992:	89 e5                	mov    %esp,%ebp
    1994:	e8 7b fa ff ff       	call   1414 <__x86.get_pc_thunk.ax>
    1999:	05 bf 35 00 00       	add    $0x35bf,%eax
    199e:	8b 45 08             	mov    0x8(%ebp),%eax
    19a1:	8b 55 0c             	mov    0xc(%ebp),%edx
    19a4:	89 10                	mov    %edx,(%eax)
    19a6:	8b 45 08             	mov    0x8(%ebp),%eax
    19a9:	c7 40 04 00 00 00 00 	movl   $0x0,0x4(%eax)
    19b0:	8b 45 08             	mov    0x8(%ebp),%eax
    19b3:	8d 50 0c             	lea    0xc(%eax),%edx
    19b6:	8b 45 08             	mov    0x8(%ebp),%eax
    19b9:	89 50 08             	mov    %edx,0x8(%eax)
    19bc:	90                   	nop
    19bd:	5d                   	pop    %ebp
    19be:	c3                   	ret    

000019bf <rio_read>:
    19bf:	55                   	push   %ebp
    19c0:	89 e5                	mov    %esp,%ebp
    19c2:	53                   	push   %ebx
    19c3:	83 ec 14             	sub    $0x14,%esp
    19c6:	e8 85 f1 ff ff       	call   b50 <__x86.get_pc_thunk.bx>
    19cb:	81 c3 8d 35 00 00    	add    $0x358d,%ebx
    19d1:	eb 5f                	jmp    1a32 <rio_read+0x73>
    19d3:	8b 45 08             	mov    0x8(%ebp),%eax
    19d6:	8d 50 0c             	lea    0xc(%eax),%edx
    19d9:	8b 45 08             	mov    0x8(%ebp),%eax
    19dc:	8b 00                	mov    (%eax),%eax
    19de:	83 ec 04             	sub    $0x4,%esp
    19e1:	68 00 20 00 00       	push   $0x2000
    19e6:	52                   	push   %edx
    19e7:	50                   	push   %eax
    19e8:	e8 33 ef ff ff       	call   920 <read@plt>
    19ed:	83 c4 10             	add    $0x10,%esp
    19f0:	89 c2                	mov    %eax,%edx
    19f2:	8b 45 08             	mov    0x8(%ebp),%eax
    19f5:	89 50 04             	mov    %edx,0x4(%eax)
    19f8:	8b 45 08             	mov    0x8(%ebp),%eax
    19fb:	8b 40 04             	mov    0x4(%eax),%eax
    19fe:	85 c0                	test   %eax,%eax
    1a00:	79 13                	jns    1a15 <rio_read+0x56>
    1a02:	e8 79 f0 ff ff       	call   a80 <__errno_location@plt>
    1a07:	8b 00                	mov    (%eax),%eax
    1a09:	83 f8 04             	cmp    $0x4,%eax
    1a0c:	74 24                	je     1a32 <rio_read+0x73>
    1a0e:	b8 ff ff ff ff       	mov    $0xffffffff,%eax
    1a13:	eb 7f                	jmp    1a94 <rio_read+0xd5>
    1a15:	8b 45 08             	mov    0x8(%ebp),%eax
    1a18:	8b 40 04             	mov    0x4(%eax),%eax
    1a1b:	85 c0                	test   %eax,%eax
    1a1d:	75 07                	jne    1a26 <rio_read+0x67>
    1a1f:	b8 00 00 00 00       	mov    $0x0,%eax
    1a24:	eb 6e                	jmp    1a94 <rio_read+0xd5>
    1a26:	8b 45 08             	mov    0x8(%ebp),%eax
    1a29:	8d 50 0c             	lea    0xc(%eax),%edx
    1a2c:	8b 45 08             	mov    0x8(%ebp),%eax
    1a2f:	89 50 08             	mov    %edx,0x8(%eax)
    1a32:	8b 45 08             	mov    0x8(%ebp),%eax
    1a35:	8b 40 04             	mov    0x4(%eax),%eax
    1a38:	85 c0                	test   %eax,%eax
    1a3a:	7e 97                	jle    19d3 <rio_read+0x14>
    1a3c:	8b 45 10             	mov    0x10(%ebp),%eax
    1a3f:	89 45 f4             	mov    %eax,-0xc(%ebp)
    1a42:	8b 45 08             	mov    0x8(%ebp),%eax
    1a45:	8b 40 04             	mov    0x4(%eax),%eax
    1a48:	39 45 10             	cmp    %eax,0x10(%ebp)
    1a4b:	76 09                	jbe    1a56 <rio_read+0x97>
    1a4d:	8b 45 08             	mov    0x8(%ebp),%eax
    1a50:	8b 40 04             	mov    0x4(%eax),%eax
    1a53:	89 45 f4             	mov    %eax,-0xc(%ebp)
    1a56:	8b 55 f4             	mov    -0xc(%ebp),%edx
    1a59:	8b 45 08             	mov    0x8(%ebp),%eax
    1a5c:	8b 40 08             	mov    0x8(%eax),%eax
    1a5f:	83 ec 04             	sub    $0x4,%esp
    1a62:	52                   	push   %edx
    1a63:	50                   	push   %eax
    1a64:	ff 75 0c             	pushl  0xc(%ebp)
    1a67:	e8 e4 ee ff ff       	call   950 <memcpy@plt>
    1a6c:	83 c4 10             	add    $0x10,%esp
    1a6f:	8b 45 08             	mov    0x8(%ebp),%eax
    1a72:	8b 50 08             	mov    0x8(%eax),%edx
    1a75:	8b 45 f4             	mov    -0xc(%ebp),%eax
    1a78:	01 c2                	add    %eax,%edx
    1a7a:	8b 45 08             	mov    0x8(%ebp),%eax
    1a7d:	89 50 08             	mov    %edx,0x8(%eax)
    1a80:	8b 45 08             	mov    0x8(%ebp),%eax
    1a83:	8b 40 04             	mov    0x4(%eax),%eax
    1a86:	2b 45 f4             	sub    -0xc(%ebp),%eax
    1a89:	89 c2                	mov    %eax,%edx
    1a8b:	8b 45 08             	mov    0x8(%ebp),%eax
    1a8e:	89 50 04             	mov    %edx,0x4(%eax)
    1a91:	8b 45 f4             	mov    -0xc(%ebp),%eax
    1a94:	8b 5d fc             	mov    -0x4(%ebp),%ebx
    1a97:	c9                   	leave  
    1a98:	c3                   	ret    

00001a99 <rio_readlineb>:
    1a99:	55                   	push   %ebp
    1a9a:	89 e5                	mov    %esp,%ebp
    1a9c:	83 ec 38             	sub    $0x38,%esp
    1a9f:	e8 70 f9 ff ff       	call   1414 <__x86.get_pc_thunk.ax>
    1aa4:	05 b4 34 00 00       	add    $0x34b4,%eax
    1aa9:	8b 45 08             	mov    0x8(%ebp),%eax
    1aac:	89 45 d4             	mov    %eax,-0x2c(%ebp)
    1aaf:	8b 45 0c             	mov    0xc(%ebp),%eax
    1ab2:	89 45 d0             	mov    %eax,-0x30(%ebp)
    1ab5:	65 a1 14 00 00 00    	mov    %gs:0x14,%eax
    1abb:	89 45 f4             	mov    %eax,-0xc(%ebp)
    1abe:	31 c0                	xor    %eax,%eax
    1ac0:	8b 45 d0             	mov    -0x30(%ebp),%eax
    1ac3:	89 45 ec             	mov    %eax,-0x14(%ebp)
    1ac6:	c7 45 e8 01 00 00 00 	movl   $0x1,-0x18(%ebp)
    1acd:	eb 54                	jmp    1b23 <rio_readlineb+0x8a>
    1acf:	83 ec 04             	sub    $0x4,%esp
    1ad2:	6a 01                	push   $0x1
    1ad4:	8d 45 e7             	lea    -0x19(%ebp),%eax
    1ad7:	50                   	push   %eax
    1ad8:	ff 75 d4             	pushl  -0x2c(%ebp)
    1adb:	e8 df fe ff ff       	call   19bf <rio_read>
    1ae0:	83 c4 10             	add    $0x10,%esp
    1ae3:	89 45 f0             	mov    %eax,-0x10(%ebp)
    1ae6:	83 7d f0 01          	cmpl   $0x1,-0x10(%ebp)
    1aea:	75 19                	jne    1b05 <rio_readlineb+0x6c>
    1aec:	8b 45 ec             	mov    -0x14(%ebp),%eax
    1aef:	8d 50 01             	lea    0x1(%eax),%edx
    1af2:	89 55 ec             	mov    %edx,-0x14(%ebp)
    1af5:	0f b6 55 e7          	movzbl -0x19(%ebp),%edx
    1af9:	88 10                	mov    %dl,(%eax)
    1afb:	0f b6 45 e7          	movzbl -0x19(%ebp),%eax
    1aff:	3c 0a                	cmp    $0xa,%al
    1b01:	75 1c                	jne    1b1f <rio_readlineb+0x86>
    1b03:	eb 29                	jmp    1b2e <rio_readlineb+0x95>
    1b05:	83 7d f0 00          	cmpl   $0x0,-0x10(%ebp)
    1b09:	75 0d                	jne    1b18 <rio_readlineb+0x7f>
    1b0b:	83 7d e8 01          	cmpl   $0x1,-0x18(%ebp)
    1b0f:	75 1c                	jne    1b2d <rio_readlineb+0x94>
    1b11:	b8 00 00 00 00       	mov    $0x0,%eax
    1b16:	eb 1f                	jmp    1b37 <rio_readlineb+0x9e>
    1b18:	b8 ff ff ff ff       	mov    $0xffffffff,%eax
    1b1d:	eb 18                	jmp    1b37 <rio_readlineb+0x9e>
    1b1f:	83 45 e8 01          	addl   $0x1,-0x18(%ebp)
    1b23:	8b 45 e8             	mov    -0x18(%ebp),%eax
    1b26:	39 45 10             	cmp    %eax,0x10(%ebp)
    1b29:	77 a4                	ja     1acf <rio_readlineb+0x36>
    1b2b:	eb 01                	jmp    1b2e <rio_readlineb+0x95>
    1b2d:	90                   	nop
    1b2e:	8b 45 ec             	mov    -0x14(%ebp),%eax
    1b31:	c6 00 00             	movb   $0x0,(%eax)
    1b34:	8b 45 e8             	mov    -0x18(%ebp),%eax
    1b37:	8b 4d f4             	mov    -0xc(%ebp),%ecx
    1b3a:	65 33 0d 14 00 00 00 	xor    %gs:0x14,%ecx
    1b41:	74 05                	je     1b48 <rio_readlineb+0xaf>
    1b43:	e8 28 0d 00 00       	call   2870 <__stack_chk_fail_local>
    1b48:	c9                   	leave  
    1b49:	c3                   	ret    

00001b4a <rio_writen>:
    1b4a:	55                   	push   %ebp
    1b4b:	89 e5                	mov    %esp,%ebp
    1b4d:	53                   	push   %ebx
    1b4e:	83 ec 14             	sub    $0x14,%esp
    1b51:	e8 fa ef ff ff       	call   b50 <__x86.get_pc_thunk.bx>
    1b56:	81 c3 02 34 00 00    	add    $0x3402,%ebx
    1b5c:	8b 45 10             	mov    0x10(%ebp),%eax
    1b5f:	89 45 ec             	mov    %eax,-0x14(%ebp)
    1b62:	8b 45 0c             	mov    0xc(%ebp),%eax
    1b65:	89 45 f4             	mov    %eax,-0xc(%ebp)
    1b68:	eb 45                	jmp    1baf <rio_writen+0x65>
    1b6a:	83 ec 04             	sub    $0x4,%esp
    1b6d:	ff 75 ec             	pushl  -0x14(%ebp)
    1b70:	ff 75 f4             	pushl  -0xc(%ebp)
    1b73:	ff 75 08             	pushl  0x8(%ebp)
    1b76:	e8 d5 ee ff ff       	call   a50 <write@plt>
    1b7b:	83 c4 10             	add    $0x10,%esp
    1b7e:	89 45 f0             	mov    %eax,-0x10(%ebp)
    1b81:	83 7d f0 00          	cmpl   $0x0,-0x10(%ebp)
    1b85:	7f 1c                	jg     1ba3 <rio_writen+0x59>
    1b87:	e8 f4 ee ff ff       	call   a80 <__errno_location@plt>
    1b8c:	8b 00                	mov    (%eax),%eax
    1b8e:	83 f8 04             	cmp    $0x4,%eax
    1b91:	75 09                	jne    1b9c <rio_writen+0x52>
    1b93:	c7 45 f0 00 00 00 00 	movl   $0x0,-0x10(%ebp)
    1b9a:	eb 07                	jmp    1ba3 <rio_writen+0x59>
    1b9c:	b8 ff ff ff ff       	mov    $0xffffffff,%eax
    1ba1:	eb 15                	jmp    1bb8 <rio_writen+0x6e>
    1ba3:	8b 45 f0             	mov    -0x10(%ebp),%eax
    1ba6:	29 45 ec             	sub    %eax,-0x14(%ebp)
    1ba9:	8b 45 f0             	mov    -0x10(%ebp),%eax
    1bac:	01 45 f4             	add    %eax,-0xc(%ebp)
    1baf:	83 7d ec 00          	cmpl   $0x0,-0x14(%ebp)
    1bb3:	75 b5                	jne    1b6a <rio_writen+0x20>
    1bb5:	8b 45 10             	mov    0x10(%ebp),%eax
    1bb8:	8b 5d fc             	mov    -0x4(%ebp),%ebx
    1bbb:	c9                   	leave  
    1bbc:	c3                   	ret    

00001bbd <urlencode>:
    1bbd:	55                   	push   %ebp
    1bbe:	89 e5                	mov    %esp,%ebp
    1bc0:	53                   	push   %ebx
    1bc1:	83 ec 24             	sub    $0x24,%esp
    1bc4:	e8 87 ef ff ff       	call   b50 <__x86.get_pc_thunk.bx>
    1bc9:	81 c3 8f 33 00 00    	add    $0x338f,%ebx
    1bcf:	8b 45 08             	mov    0x8(%ebp),%eax
    1bd2:	89 45 e4             	mov    %eax,-0x1c(%ebp)
    1bd5:	8b 45 0c             	mov    0xc(%ebp),%eax
    1bd8:	89 45 e0             	mov    %eax,-0x20(%ebp)
    1bdb:	65 a1 14 00 00 00    	mov    %gs:0x14,%eax
    1be1:	89 45 f4             	mov    %eax,-0xc(%ebp)
    1be4:	31 c0                	xor    %eax,%eax
    1be6:	83 ec 0c             	sub    $0xc,%esp
    1be9:	ff 75 e4             	pushl  -0x1c(%ebp)
    1bec:	e8 2f ee ff ff       	call   a20 <strlen@plt>
    1bf1:	83 c4 10             	add    $0x10,%esp
    1bf4:	89 45 e8             	mov    %eax,-0x18(%ebp)
    1bf7:	e9 10 01 00 00       	jmp    1d0c <urlencode+0x14f>
    1bfc:	8b 45 e4             	mov    -0x1c(%ebp),%eax
    1bff:	0f b6 00             	movzbl (%eax),%eax
    1c02:	3c 2a                	cmp    $0x2a,%al
    1c04:	74 5a                	je     1c60 <urlencode+0xa3>
    1c06:	8b 45 e4             	mov    -0x1c(%ebp),%eax
    1c09:	0f b6 00             	movzbl (%eax),%eax
    1c0c:	3c 2d                	cmp    $0x2d,%al
    1c0e:	74 50                	je     1c60 <urlencode+0xa3>
    1c10:	8b 45 e4             	mov    -0x1c(%ebp),%eax
    1c13:	0f b6 00             	movzbl (%eax),%eax
    1c16:	3c 2e                	cmp    $0x2e,%al
    1c18:	74 46                	je     1c60 <urlencode+0xa3>
    1c1a:	8b 45 e4             	mov    -0x1c(%ebp),%eax
    1c1d:	0f b6 00             	movzbl (%eax),%eax
    1c20:	3c 5f                	cmp    $0x5f,%al
    1c22:	74 3c                	je     1c60 <urlencode+0xa3>
    1c24:	8b 45 e4             	mov    -0x1c(%ebp),%eax
    1c27:	0f b6 00             	movzbl (%eax),%eax
    1c2a:	3c 2f                	cmp    $0x2f,%al
    1c2c:	76 0a                	jbe    1c38 <urlencode+0x7b>
    1c2e:	8b 45 e4             	mov    -0x1c(%ebp),%eax
    1c31:	0f b6 00             	movzbl (%eax),%eax
    1c34:	3c 39                	cmp    $0x39,%al
    1c36:	76 28                	jbe    1c60 <urlencode+0xa3>
    1c38:	8b 45 e4             	mov    -0x1c(%ebp),%eax
    1c3b:	0f b6 00             	movzbl (%eax),%eax
    1c3e:	3c 40                	cmp    $0x40,%al
    1c40:	76 0a                	jbe    1c4c <urlencode+0x8f>
    1c42:	8b 45 e4             	mov    -0x1c(%ebp),%eax
    1c45:	0f b6 00             	movzbl (%eax),%eax
    1c48:	3c 5a                	cmp    $0x5a,%al
    1c4a:	76 14                	jbe    1c60 <urlencode+0xa3>
    1c4c:	8b 45 e4             	mov    -0x1c(%ebp),%eax
    1c4f:	0f b6 00             	movzbl (%eax),%eax
    1c52:	3c 60                	cmp    $0x60,%al
    1c54:	76 20                	jbe    1c76 <urlencode+0xb9>
    1c56:	8b 45 e4             	mov    -0x1c(%ebp),%eax
    1c59:	0f b6 00             	movzbl (%eax),%eax
    1c5c:	3c 7a                	cmp    $0x7a,%al
    1c5e:	77 16                	ja     1c76 <urlencode+0xb9>
    1c60:	8b 45 e0             	mov    -0x20(%ebp),%eax
    1c63:	8d 50 01             	lea    0x1(%eax),%edx
    1c66:	89 55 e0             	mov    %edx,-0x20(%ebp)
    1c69:	8b 55 e4             	mov    -0x1c(%ebp),%edx
    1c6c:	0f b6 12             	movzbl (%edx),%edx
    1c6f:	88 10                	mov    %dl,(%eax)
    1c71:	e9 92 00 00 00       	jmp    1d08 <urlencode+0x14b>
    1c76:	8b 45 e4             	mov    -0x1c(%ebp),%eax
    1c79:	0f b6 00             	movzbl (%eax),%eax
    1c7c:	3c 20                	cmp    $0x20,%al
    1c7e:	75 0e                	jne    1c8e <urlencode+0xd1>
    1c80:	8b 45 e0             	mov    -0x20(%ebp),%eax
    1c83:	8d 50 01             	lea    0x1(%eax),%edx
    1c86:	89 55 e0             	mov    %edx,-0x20(%ebp)
    1c89:	c6 00 2b             	movb   $0x2b,(%eax)
    1c8c:	eb 7a                	jmp    1d08 <urlencode+0x14b>
    1c8e:	8b 45 e4             	mov    -0x1c(%ebp),%eax
    1c91:	0f b6 00             	movzbl (%eax),%eax
    1c94:	3c 1f                	cmp    $0x1f,%al
    1c96:	76 0a                	jbe    1ca2 <urlencode+0xe5>
    1c98:	8b 45 e4             	mov    -0x1c(%ebp),%eax
    1c9b:	0f b6 00             	movzbl (%eax),%eax
    1c9e:	84 c0                	test   %al,%al
    1ca0:	79 0a                	jns    1cac <urlencode+0xef>
    1ca2:	8b 45 e4             	mov    -0x1c(%ebp),%eax
    1ca5:	0f b6 00             	movzbl (%eax),%eax
    1ca8:	3c 09                	cmp    $0x9,%al
    1caa:	75 55                	jne    1d01 <urlencode+0x144>
    1cac:	8b 45 e4             	mov    -0x1c(%ebp),%eax
    1caf:	0f b6 00             	movzbl (%eax),%eax
    1cb2:	0f b6 c0             	movzbl %al,%eax
    1cb5:	83 ec 04             	sub    $0x4,%esp
    1cb8:	50                   	push   %eax
    1cb9:	8d 83 04 dd ff ff    	lea    -0x22fc(%ebx),%eax
    1cbf:	50                   	push   %eax
    1cc0:	8d 45 ec             	lea    -0x14(%ebp),%eax
    1cc3:	50                   	push   %eax
    1cc4:	e8 c7 ed ff ff       	call   a90 <sprintf@plt>
    1cc9:	83 c4 10             	add    $0x10,%esp
    1ccc:	0f b6 4d ec          	movzbl -0x14(%ebp),%ecx
    1cd0:	8b 45 e0             	mov    -0x20(%ebp),%eax
    1cd3:	8d 50 01             	lea    0x1(%eax),%edx
    1cd6:	89 55 e0             	mov    %edx,-0x20(%ebp)
    1cd9:	89 ca                	mov    %ecx,%edx
    1cdb:	88 10                	mov    %dl,(%eax)
    1cdd:	0f b6 4d ed          	movzbl -0x13(%ebp),%ecx
    1ce1:	8b 45 e0             	mov    -0x20(%ebp),%eax
    1ce4:	8d 50 01             	lea    0x1(%eax),%edx
    1ce7:	89 55 e0             	mov    %edx,-0x20(%ebp)
    1cea:	89 ca                	mov    %ecx,%edx
    1cec:	88 10                	mov    %dl,(%eax)
    1cee:	0f b6 4d ee          	movzbl -0x12(%ebp),%ecx
    1cf2:	8b 45 e0             	mov    -0x20(%ebp),%eax
    1cf5:	8d 50 01             	lea    0x1(%eax),%edx
    1cf8:	89 55 e0             	mov    %edx,-0x20(%ebp)
    1cfb:	89 ca                	mov    %ecx,%edx
    1cfd:	88 10                	mov    %dl,(%eax)
    1cff:	eb 07                	jmp    1d08 <urlencode+0x14b>
    1d01:	b8 ff ff ff ff       	mov    $0xffffffff,%eax
    1d06:	eb 1a                	jmp    1d22 <urlencode+0x165>
    1d08:	83 45 e4 01          	addl   $0x1,-0x1c(%ebp)
    1d0c:	8b 45 e8             	mov    -0x18(%ebp),%eax
    1d0f:	8d 50 ff             	lea    -0x1(%eax),%edx
    1d12:	89 55 e8             	mov    %edx,-0x18(%ebp)
    1d15:	85 c0                	test   %eax,%eax
    1d17:	0f 85 df fe ff ff    	jne    1bfc <urlencode+0x3f>
    1d1d:	b8 00 00 00 00       	mov    $0x0,%eax
    1d22:	8b 4d f4             	mov    -0xc(%ebp),%ecx
    1d25:	65 33 0d 14 00 00 00 	xor    %gs:0x14,%ecx
    1d2c:	74 05                	je     1d33 <urlencode+0x176>
    1d2e:	e8 3d 0b 00 00       	call   2870 <__stack_chk_fail_local>
    1d33:	8b 5d fc             	mov    -0x4(%ebp),%ebx
    1d36:	c9                   	leave  
    1d37:	c3                   	ret    

00001d38 <submitr>:
    1d38:	55                   	push   %ebp
    1d39:	89 e5                	mov    %esp,%ebp
    1d3b:	57                   	push   %edi
    1d3c:	56                   	push   %esi
    1d3d:	53                   	push   %ebx
    1d3e:	81 ec 6c a0 00 00    	sub    $0xa06c,%esp
    1d44:	e8 07 ee ff ff       	call   b50 <__x86.get_pc_thunk.bx>
    1d49:	81 c3 0f 32 00 00    	add    $0x320f,%ebx
    1d4f:	8b 45 08             	mov    0x8(%ebp),%eax
    1d52:	89 85 a4 5f ff ff    	mov    %eax,-0xa05c(%ebp)
    1d58:	8b 45 10             	mov    0x10(%ebp),%eax
    1d5b:	89 85 a0 5f ff ff    	mov    %eax,-0xa060(%ebp)
    1d61:	8b 45 14             	mov    0x14(%ebp),%eax
    1d64:	89 85 9c 5f ff ff    	mov    %eax,-0xa064(%ebp)
    1d6a:	8b 45 18             	mov    0x18(%ebp),%eax
    1d6d:	89 85 98 5f ff ff    	mov    %eax,-0xa068(%ebp)
    1d73:	8b 45 1c             	mov    0x1c(%ebp),%eax
    1d76:	89 85 94 5f ff ff    	mov    %eax,-0xa06c(%ebp)
    1d7c:	8b 45 20             	mov    0x20(%ebp),%eax
    1d7f:	89 85 90 5f ff ff    	mov    %eax,-0xa070(%ebp)
    1d85:	8b 45 24             	mov    0x24(%ebp),%eax
    1d88:	89 85 8c 5f ff ff    	mov    %eax,-0xa074(%ebp)
    1d8e:	65 a1 14 00 00 00    	mov    %gs:0x14,%eax
    1d94:	89 45 e4             	mov    %eax,-0x1c(%ebp)
    1d97:	31 c0                	xor    %eax,%eax
    1d99:	c7 85 b4 5f ff ff 00 	movl   $0x0,-0xa04c(%ebp)
    1da0:	00 00 00 
    1da3:	83 ec 04             	sub    $0x4,%esp
    1da6:	6a 00                	push   $0x0
    1da8:	6a 01                	push   $0x1
    1daa:	6a 02                	push   $0x2
    1dac:	e8 ff ec ff ff       	call   ab0 <socket@plt>
    1db1:	83 c4 10             	add    $0x10,%esp
    1db4:	89 85 b8 5f ff ff    	mov    %eax,-0xa048(%ebp)
    1dba:	83 bd b8 5f ff ff 00 	cmpl   $0x0,-0xa048(%ebp)
    1dc1:	79 54                	jns    1e17 <submitr+0xdf>
    1dc3:	8b 85 8c 5f ff ff    	mov    -0xa074(%ebp),%eax
    1dc9:	c7 00 45 72 72 6f    	movl   $0x6f727245,(%eax)
    1dcf:	c7 40 04 72 3a 20 43 	movl   $0x43203a72,0x4(%eax)
    1dd6:	c7 40 08 6c 69 65 6e 	movl   $0x6e65696c,0x8(%eax)
    1ddd:	c7 40 0c 74 20 75 6e 	movl   $0x6e752074,0xc(%eax)
    1de4:	c7 40 10 61 62 6c 65 	movl   $0x656c6261,0x10(%eax)
    1deb:	c7 40 14 20 74 6f 20 	movl   $0x206f7420,0x14(%eax)
    1df2:	c7 40 18 63 72 65 61 	movl   $0x61657263,0x18(%eax)
    1df9:	c7 40 1c 74 65 20 73 	movl   $0x73206574,0x1c(%eax)
    1e00:	c7 40 20 6f 63 6b 65 	movl   $0x656b636f,0x20(%eax)
    1e07:	66 c7 40 24 74 00    	movw   $0x74,0x24(%eax)
    1e0d:	b8 ff ff ff ff       	mov    $0xffffffff,%eax
    1e12:	e9 bf 06 00 00       	jmp    24d6 <submitr+0x79e>
    1e17:	83 ec 0c             	sub    $0xc,%esp
    1e1a:	ff b5 a4 5f ff ff    	pushl  -0xa05c(%ebp)
    1e20:	e8 9b ec ff ff       	call   ac0 <gethostbyname@plt>
    1e25:	83 c4 10             	add    $0x10,%esp
    1e28:	89 85 bc 5f ff ff    	mov    %eax,-0xa044(%ebp)
    1e2e:	83 bd bc 5f ff ff 00 	cmpl   $0x0,-0xa044(%ebp)
    1e35:	75 77                	jne    1eae <submitr+0x176>
    1e37:	8b 85 8c 5f ff ff    	mov    -0xa074(%ebp),%eax
    1e3d:	c7 00 45 72 72 6f    	movl   $0x6f727245,(%eax)
    1e43:	c7 40 04 72 3a 20 44 	movl   $0x44203a72,0x4(%eax)
    1e4a:	c7 40 08 4e 53 20 69 	movl   $0x6920534e,0x8(%eax)
    1e51:	c7 40 0c 73 20 75 6e 	movl   $0x6e752073,0xc(%eax)
    1e58:	c7 40 10 61 62 6c 65 	movl   $0x656c6261,0x10(%eax)
    1e5f:	c7 40 14 20 74 6f 20 	movl   $0x206f7420,0x14(%eax)
    1e66:	c7 40 18 72 65 73 6f 	movl   $0x6f736572,0x18(%eax)
    1e6d:	c7 40 1c 6c 76 65 20 	movl   $0x2065766c,0x1c(%eax)
    1e74:	c7 40 20 73 65 72 76 	movl   $0x76726573,0x20(%eax)
    1e7b:	c7 40 24 65 72 20 61 	movl   $0x61207265,0x24(%eax)
    1e82:	c7 40 28 64 64 72 65 	movl   $0x65726464,0x28(%eax)
    1e89:	66 c7 40 2c 73 73    	movw   $0x7373,0x2c(%eax)
    1e8f:	c6 40 2e 00          	movb   $0x0,0x2e(%eax)
    1e93:	83 ec 0c             	sub    $0xc,%esp
    1e96:	ff b5 b8 5f ff ff    	pushl  -0xa048(%ebp)
    1e9c:	e8 3f ec ff ff       	call   ae0 <close@plt>
    1ea1:	83 c4 10             	add    $0x10,%esp
    1ea4:	b8 ff ff ff ff       	mov    $0xffffffff,%eax
    1ea9:	e9 28 06 00 00       	jmp    24d6 <submitr+0x79e>
    1eae:	83 ec 08             	sub    $0x8,%esp
    1eb1:	6a 10                	push   $0x10
    1eb3:	8d 85 c8 5f ff ff    	lea    -0xa038(%ebp),%eax
    1eb9:	50                   	push   %eax
    1eba:	e8 a1 ea ff ff       	call   960 <bzero@plt>
    1ebf:	83 c4 10             	add    $0x10,%esp
    1ec2:	66 c7 85 c8 5f ff ff 	movw   $0x2,-0xa038(%ebp)
    1ec9:	02 00 
    1ecb:	8b 85 bc 5f ff ff    	mov    -0xa044(%ebp),%eax
    1ed1:	8b 40 0c             	mov    0xc(%eax),%eax
    1ed4:	89 c2                	mov    %eax,%edx
    1ed6:	8b 85 bc 5f ff ff    	mov    -0xa044(%ebp),%eax
    1edc:	8b 40 10             	mov    0x10(%eax),%eax
    1edf:	8b 00                	mov    (%eax),%eax
    1ee1:	83 ec 04             	sub    $0x4,%esp
    1ee4:	52                   	push   %edx
    1ee5:	8d 95 c8 5f ff ff    	lea    -0xa038(%ebp),%edx
    1eeb:	83 c2 04             	add    $0x4,%edx
    1eee:	52                   	push   %edx
    1eef:	50                   	push   %eax
    1ef0:	e8 db ea ff ff       	call   9d0 <bcopy@plt>
    1ef5:	83 c4 10             	add    $0x10,%esp
    1ef8:	8b 45 0c             	mov    0xc(%ebp),%eax
    1efb:	0f b7 c0             	movzwl %ax,%eax
    1efe:	83 ec 0c             	sub    $0xc,%esp
    1f01:	50                   	push   %eax
    1f02:	e8 b9 ea ff ff       	call   9c0 <htons@plt>
    1f07:	83 c4 10             	add    $0x10,%esp
    1f0a:	66 89 85 ca 5f ff ff 	mov    %ax,-0xa036(%ebp)
    1f11:	83 ec 04             	sub    $0x4,%esp
    1f14:	6a 10                	push   $0x10
    1f16:	8d 85 c8 5f ff ff    	lea    -0xa038(%ebp),%eax
    1f1c:	50                   	push   %eax
    1f1d:	ff b5 b8 5f ff ff    	pushl  -0xa048(%ebp)
    1f23:	e8 a8 eb ff ff       	call   ad0 <connect@plt>
    1f28:	83 c4 10             	add    $0x10,%esp
    1f2b:	85 c0                	test   %eax,%eax
    1f2d:	79 69                	jns    1f98 <submitr+0x260>
    1f2f:	8b 85 8c 5f ff ff    	mov    -0xa074(%ebp),%eax
    1f35:	c7 00 45 72 72 6f    	movl   $0x6f727245,(%eax)
    1f3b:	c7 40 04 72 3a 20 55 	movl   $0x55203a72,0x4(%eax)
    1f42:	c7 40 08 6e 61 62 6c 	movl   $0x6c62616e,0x8(%eax)
    1f49:	c7 40 0c 65 20 74 6f 	movl   $0x6f742065,0xc(%eax)
    1f50:	c7 40 10 20 63 6f 6e 	movl   $0x6e6f6320,0x10(%eax)
    1f57:	c7 40 14 6e 65 63 74 	movl   $0x7463656e,0x14(%eax)
    1f5e:	c7 40 18 20 74 6f 20 	movl   $0x206f7420,0x18(%eax)
    1f65:	c7 40 1c 74 68 65 20 	movl   $0x20656874,0x1c(%eax)
    1f6c:	c7 40 20 73 65 72 76 	movl   $0x76726573,0x20(%eax)
    1f73:	66 c7 40 24 65 72    	movw   $0x7265,0x24(%eax)
    1f79:	c6 40 26 00          	movb   $0x0,0x26(%eax)
    1f7d:	83 ec 0c             	sub    $0xc,%esp
    1f80:	ff b5 b8 5f ff ff    	pushl  -0xa048(%ebp)
    1f86:	e8 55 eb ff ff       	call   ae0 <close@plt>
    1f8b:	83 c4 10             	add    $0x10,%esp
    1f8e:	b8 ff ff ff ff       	mov    $0xffffffff,%eax
    1f93:	e9 3e 05 00 00       	jmp    24d6 <submitr+0x79e>
    1f98:	83 ec 0c             	sub    $0xc,%esp
    1f9b:	ff b5 90 5f ff ff    	pushl  -0xa070(%ebp)
    1fa1:	e8 7a ea ff ff       	call   a20 <strlen@plt>
    1fa6:	83 c4 10             	add    $0x10,%esp
    1fa9:	89 85 c0 5f ff ff    	mov    %eax,-0xa040(%ebp)
    1faf:	83 ec 0c             	sub    $0xc,%esp
    1fb2:	ff b5 a0 5f ff ff    	pushl  -0xa060(%ebp)
    1fb8:	e8 63 ea ff ff       	call   a20 <strlen@plt>
    1fbd:	83 c4 10             	add    $0x10,%esp
    1fc0:	89 c6                	mov    %eax,%esi
    1fc2:	83 ec 0c             	sub    $0xc,%esp
    1fc5:	ff b5 9c 5f ff ff    	pushl  -0xa064(%ebp)
    1fcb:	e8 50 ea ff ff       	call   a20 <strlen@plt>
    1fd0:	83 c4 10             	add    $0x10,%esp
    1fd3:	01 c6                	add    %eax,%esi
    1fd5:	83 ec 0c             	sub    $0xc,%esp
    1fd8:	ff b5 94 5f ff ff    	pushl  -0xa06c(%ebp)
    1fde:	e8 3d ea ff ff       	call   a20 <strlen@plt>
    1fe3:	83 c4 10             	add    $0x10,%esp
    1fe6:	8d 0c 06             	lea    (%esi,%eax,1),%ecx
    1fe9:	8b 95 c0 5f ff ff    	mov    -0xa040(%ebp),%edx
    1fef:	89 d0                	mov    %edx,%eax
    1ff1:	01 c0                	add    %eax,%eax
    1ff3:	01 d0                	add    %edx,%eax
    1ff5:	01 c8                	add    %ecx,%eax
    1ff7:	83 e8 80             	sub    $0xffffff80,%eax
    1ffa:	89 85 c4 5f ff ff    	mov    %eax,-0xa03c(%ebp)
    2000:	81 bd c4 5f ff ff 00 	cmpl   $0x2000,-0xa03c(%ebp)
    2007:	20 00 00 
    200a:	0f 86 82 00 00 00    	jbe    2092 <submitr+0x35a>
    2010:	8b 85 8c 5f ff ff    	mov    -0xa074(%ebp),%eax
    2016:	c7 00 45 72 72 6f    	movl   $0x6f727245,(%eax)
    201c:	c7 40 04 72 3a 20 52 	movl   $0x52203a72,0x4(%eax)
    2023:	c7 40 08 65 73 75 6c 	movl   $0x6c757365,0x8(%eax)
    202a:	c7 40 0c 74 20 73 74 	movl   $0x74732074,0xc(%eax)
    2031:	c7 40 10 72 69 6e 67 	movl   $0x676e6972,0x10(%eax)
    2038:	c7 40 14 20 74 6f 6f 	movl   $0x6f6f7420,0x14(%eax)
    203f:	c7 40 18 20 6c 61 72 	movl   $0x72616c20,0x18(%eax)
    2046:	c7 40 1c 67 65 2e 20 	movl   $0x202e6567,0x1c(%eax)
    204d:	c7 40 20 49 6e 63 72 	movl   $0x72636e49,0x20(%eax)
    2054:	c7 40 24 65 61 73 65 	movl   $0x65736165,0x24(%eax)
    205b:	c7 40 28 20 53 55 42 	movl   $0x42555320,0x28(%eax)
    2062:	c7 40 2c 4d 49 54 52 	movl   $0x5254494d,0x2c(%eax)
    2069:	c7 40 30 5f 4d 41 58 	movl   $0x58414d5f,0x30(%eax)
    2070:	c7 40 34 42 55 46 00 	movl   $0x465542,0x34(%eax)
    2077:	83 ec 0c             	sub    $0xc,%esp
    207a:	ff b5 b8 5f ff ff    	pushl  -0xa048(%ebp)
    2080:	e8 5b ea ff ff       	call   ae0 <close@plt>
    2085:	83 c4 10             	add    $0x10,%esp
    2088:	b8 ff ff ff ff       	mov    $0xffffffff,%eax
    208d:	e9 44 04 00 00       	jmp    24d6 <submitr+0x79e>
    2092:	83 ec 08             	sub    $0x8,%esp
    2095:	68 00 20 00 00       	push   $0x2000
    209a:	8d 85 e4 9f ff ff    	lea    -0x601c(%ebp),%eax
    20a0:	50                   	push   %eax
    20a1:	e8 ba e8 ff ff       	call   960 <bzero@plt>
    20a6:	83 c4 10             	add    $0x10,%esp
    20a9:	83 ec 08             	sub    $0x8,%esp
    20ac:	8d 85 e4 9f ff ff    	lea    -0x601c(%ebp),%eax
    20b2:	50                   	push   %eax
    20b3:	ff b5 90 5f ff ff    	pushl  -0xa070(%ebp)
    20b9:	e8 ff fa ff ff       	call   1bbd <urlencode>
    20be:	83 c4 10             	add    $0x10,%esp
    20c1:	85 c0                	test   %eax,%eax
    20c3:	79 54                	jns    2119 <submitr+0x3e1>
    20c5:	8b 85 8c 5f ff ff    	mov    -0xa074(%ebp),%eax
    20cb:	89 c2                	mov    %eax,%edx
    20cd:	8d 83 0c dd ff ff    	lea    -0x22f4(%ebx),%eax
    20d3:	b9 43 00 00 00       	mov    $0x43,%ecx
    20d8:	8b 30                	mov    (%eax),%esi
    20da:	89 32                	mov    %esi,(%edx)
    20dc:	8b 74 08 fc          	mov    -0x4(%eax,%ecx,1),%esi
    20e0:	89 74 0a fc          	mov    %esi,-0x4(%edx,%ecx,1)
    20e4:	8d 7a 04             	lea    0x4(%edx),%edi
    20e7:	83 e7 fc             	and    $0xfffffffc,%edi
    20ea:	29 fa                	sub    %edi,%edx
    20ec:	29 d0                	sub    %edx,%eax
    20ee:	01 d1                	add    %edx,%ecx
    20f0:	83 e1 fc             	and    $0xfffffffc,%ecx
    20f3:	c1 e9 02             	shr    $0x2,%ecx
    20f6:	89 ca                	mov    %ecx,%edx
    20f8:	89 c6                	mov    %eax,%esi
    20fa:	89 d1                	mov    %edx,%ecx
    20fc:	f3 a5                	rep movsl %ds:(%esi),%es:(%edi)
    20fe:	83 ec 0c             	sub    $0xc,%esp
    2101:	ff b5 b8 5f ff ff    	pushl  -0xa048(%ebp)
    2107:	e8 d4 e9 ff ff       	call   ae0 <close@plt>
    210c:	83 c4 10             	add    $0x10,%esp
    210f:	b8 ff ff ff ff       	mov    $0xffffffff,%eax
    2114:	e9 bd 03 00 00       	jmp    24d6 <submitr+0x79e>
    2119:	83 ec 04             	sub    $0x4,%esp
    211c:	8d 85 e4 9f ff ff    	lea    -0x601c(%ebp),%eax
    2122:	50                   	push   %eax
    2123:	ff b5 94 5f ff ff    	pushl  -0xa06c(%ebp)
    2129:	ff b5 98 5f ff ff    	pushl  -0xa068(%ebp)
    212f:	ff b5 9c 5f ff ff    	pushl  -0xa064(%ebp)
    2135:	ff b5 a0 5f ff ff    	pushl  -0xa060(%ebp)
    213b:	8d 83 50 dd ff ff    	lea    -0x22b0(%ebx),%eax
    2141:	50                   	push   %eax
    2142:	8d 85 e4 7f ff ff    	lea    -0x801c(%ebp),%eax
    2148:	50                   	push   %eax
    2149:	e8 42 e9 ff ff       	call   a90 <sprintf@plt>
    214e:	83 c4 20             	add    $0x20,%esp
    2151:	83 ec 0c             	sub    $0xc,%esp
    2154:	8d 85 e4 7f ff ff    	lea    -0x801c(%ebp),%eax
    215a:	50                   	push   %eax
    215b:	e8 c0 e8 ff ff       	call   a20 <strlen@plt>
    2160:	83 c4 10             	add    $0x10,%esp
    2163:	83 ec 04             	sub    $0x4,%esp
    2166:	50                   	push   %eax
    2167:	8d 85 e4 7f ff ff    	lea    -0x801c(%ebp),%eax
    216d:	50                   	push   %eax
    216e:	ff b5 b8 5f ff ff    	pushl  -0xa048(%ebp)
    2174:	e8 d1 f9 ff ff       	call   1b4a <rio_writen>
    2179:	83 c4 10             	add    $0x10,%esp
    217c:	85 c0                	test   %eax,%eax
    217e:	79 6d                	jns    21ed <submitr+0x4b5>
    2180:	8b 85 8c 5f ff ff    	mov    -0xa074(%ebp),%eax
    2186:	c7 00 45 72 72 6f    	movl   $0x6f727245,(%eax)
    218c:	c7 40 04 72 3a 20 43 	movl   $0x43203a72,0x4(%eax)
    2193:	c7 40 08 6c 69 65 6e 	movl   $0x6e65696c,0x8(%eax)
    219a:	c7 40 0c 74 20 75 6e 	movl   $0x6e752074,0xc(%eax)
    21a1:	c7 40 10 61 62 6c 65 	movl   $0x656c6261,0x10(%eax)
    21a8:	c7 40 14 20 74 6f 20 	movl   $0x206f7420,0x14(%eax)
    21af:	c7 40 18 77 72 69 74 	movl   $0x74697277,0x18(%eax)
    21b6:	c7 40 1c 65 20 74 6f 	movl   $0x6f742065,0x1c(%eax)
    21bd:	c7 40 20 20 74 68 65 	movl   $0x65687420,0x20(%eax)
    21c4:	c7 40 24 20 73 65 72 	movl   $0x72657320,0x24(%eax)
    21cb:	c7 40 28 76 65 72 00 	movl   $0x726576,0x28(%eax)
    21d2:	83 ec 0c             	sub    $0xc,%esp
    21d5:	ff b5 b8 5f ff ff    	pushl  -0xa048(%ebp)
    21db:	e8 00 e9 ff ff       	call   ae0 <close@plt>
    21e0:	83 c4 10             	add    $0x10,%esp
    21e3:	b8 ff ff ff ff       	mov    $0xffffffff,%eax
    21e8:	e9 e9 02 00 00       	jmp    24d6 <submitr+0x79e>
    21ed:	83 ec 08             	sub    $0x8,%esp
    21f0:	ff b5 b8 5f ff ff    	pushl  -0xa048(%ebp)
    21f6:	8d 85 d8 5f ff ff    	lea    -0xa028(%ebp),%eax
    21fc:	50                   	push   %eax
    21fd:	e8 8f f7 ff ff       	call   1991 <rio_readinitb>
    2202:	83 c4 10             	add    $0x10,%esp
    2205:	83 ec 04             	sub    $0x4,%esp
    2208:	68 00 20 00 00       	push   $0x2000
    220d:	8d 85 e4 7f ff ff    	lea    -0x801c(%ebp),%eax
    2213:	50                   	push   %eax
    2214:	8d 85 d8 5f ff ff    	lea    -0xa028(%ebp),%eax
    221a:	50                   	push   %eax
    221b:	e8 79 f8 ff ff       	call   1a99 <rio_readlineb>
    2220:	83 c4 10             	add    $0x10,%esp
    2223:	85 c0                	test   %eax,%eax
    2225:	0f 8f 81 00 00 00    	jg     22ac <submitr+0x574>
    222b:	8b 85 8c 5f ff ff    	mov    -0xa074(%ebp),%eax
    2231:	c7 00 45 72 72 6f    	movl   $0x6f727245,(%eax)
    2237:	c7 40 04 72 3a 20 43 	movl   $0x43203a72,0x4(%eax)
    223e:	c7 40 08 6c 69 65 6e 	movl   $0x6e65696c,0x8(%eax)
    2245:	c7 40 0c 74 20 75 6e 	movl   $0x6e752074,0xc(%eax)
    224c:	c7 40 10 61 62 6c 65 	movl   $0x656c6261,0x10(%eax)
    2253:	c7 40 14 20 74 6f 20 	movl   $0x206f7420,0x14(%eax)
    225a:	c7 40 18 72 65 61 64 	movl   $0x64616572,0x18(%eax)
    2261:	c7 40 1c 20 66 69 72 	movl   $0x72696620,0x1c(%eax)
    2268:	c7 40 20 73 74 20 68 	movl   $0x68207473,0x20(%eax)
    226f:	c7 40 24 65 61 64 65 	movl   $0x65646165,0x24(%eax)
    2276:	c7 40 28 72 20 66 72 	movl   $0x72662072,0x28(%eax)
    227d:	c7 40 2c 6f 6d 20 73 	movl   $0x73206d6f,0x2c(%eax)
    2284:	c7 40 30 65 72 76 65 	movl   $0x65767265,0x30(%eax)
    228b:	66 c7 40 34 72 00    	movw   $0x72,0x34(%eax)
    2291:	83 ec 0c             	sub    $0xc,%esp
    2294:	ff b5 b8 5f ff ff    	pushl  -0xa048(%ebp)
    229a:	e8 41 e8 ff ff       	call   ae0 <close@plt>
    229f:	83 c4 10             	add    $0x10,%esp
    22a2:	b8 ff ff ff ff       	mov    $0xffffffff,%eax
    22a7:	e9 2a 02 00 00       	jmp    24d6 <submitr+0x79e>
    22ac:	83 ec 0c             	sub    $0xc,%esp
    22af:	8d 85 e4 df ff ff    	lea    -0x201c(%ebp),%eax
    22b5:	50                   	push   %eax
    22b6:	8d 85 b4 5f ff ff    	lea    -0xa04c(%ebp),%eax
    22bc:	50                   	push   %eax
    22bd:	8d 85 e4 bf ff ff    	lea    -0x401c(%ebp),%eax
    22c3:	50                   	push   %eax
    22c4:	8d 83 a5 dd ff ff    	lea    -0x225b(%ebx),%eax
    22ca:	50                   	push   %eax
    22cb:	8d 85 e4 7f ff ff    	lea    -0x801c(%ebp),%eax
    22d1:	50                   	push   %eax
    22d2:	e8 89 e7 ff ff       	call   a60 <__isoc99_sscanf@plt>
    22d7:	83 c4 20             	add    $0x20,%esp
    22da:	8b 85 b4 5f ff ff    	mov    -0xa04c(%ebp),%eax
    22e0:	3d c8 00 00 00       	cmp    $0xc8,%eax
    22e5:	0f 84 d8 00 00 00    	je     23c3 <submitr+0x68b>
    22eb:	8b 85 b4 5f ff ff    	mov    -0xa04c(%ebp),%eax
    22f1:	8d 95 e4 df ff ff    	lea    -0x201c(%ebp),%edx
    22f7:	52                   	push   %edx
    22f8:	50                   	push   %eax
    22f9:	8d 83 b8 dd ff ff    	lea    -0x2248(%ebx),%eax
    22ff:	50                   	push   %eax
    2300:	ff b5 8c 5f ff ff    	pushl  -0xa074(%ebp)
    2306:	e8 85 e7 ff ff       	call   a90 <sprintf@plt>
    230b:	83 c4 10             	add    $0x10,%esp
    230e:	83 ec 0c             	sub    $0xc,%esp
    2311:	ff b5 b8 5f ff ff    	pushl  -0xa048(%ebp)
    2317:	e8 c4 e7 ff ff       	call   ae0 <close@plt>
    231c:	83 c4 10             	add    $0x10,%esp
    231f:	b8 ff ff ff ff       	mov    $0xffffffff,%eax
    2324:	e9 ad 01 00 00       	jmp    24d6 <submitr+0x79e>
    2329:	83 ec 04             	sub    $0x4,%esp
    232c:	68 00 20 00 00       	push   $0x2000
    2331:	8d 85 e4 7f ff ff    	lea    -0x801c(%ebp),%eax
    2337:	50                   	push   %eax
    2338:	8d 85 d8 5f ff ff    	lea    -0xa028(%ebp),%eax
    233e:	50                   	push   %eax
    233f:	e8 55 f7 ff ff       	call   1a99 <rio_readlineb>
    2344:	83 c4 10             	add    $0x10,%esp
    2347:	85 c0                	test   %eax,%eax
    2349:	7f 78                	jg     23c3 <submitr+0x68b>
    234b:	8b 85 8c 5f ff ff    	mov    -0xa074(%ebp),%eax
    2351:	c7 00 45 72 72 6f    	movl   $0x6f727245,(%eax)
    2357:	c7 40 04 72 3a 20 43 	movl   $0x43203a72,0x4(%eax)
    235e:	c7 40 08 6c 69 65 6e 	movl   $0x6e65696c,0x8(%eax)
    2365:	c7 40 0c 74 20 75 6e 	movl   $0x6e752074,0xc(%eax)
    236c:	c7 40 10 61 62 6c 65 	movl   $0x656c6261,0x10(%eax)
    2373:	c7 40 14 20 74 6f 20 	movl   $0x206f7420,0x14(%eax)
    237a:	c7 40 18 72 65 61 64 	movl   $0x64616572,0x18(%eax)
    2381:	c7 40 1c 20 68 65 61 	movl   $0x61656820,0x1c(%eax)
    2388:	c7 40 20 64 65 72 73 	movl   $0x73726564,0x20(%eax)
    238f:	c7 40 24 20 66 72 6f 	movl   $0x6f726620,0x24(%eax)
    2396:	c7 40 28 6d 20 73 65 	movl   $0x6573206d,0x28(%eax)
    239d:	c7 40 2c 72 76 65 72 	movl   $0x72657672,0x2c(%eax)
    23a4:	c6 40 30 00          	movb   $0x0,0x30(%eax)
    23a8:	83 ec 0c             	sub    $0xc,%esp
    23ab:	ff b5 b8 5f ff ff    	pushl  -0xa048(%ebp)
    23b1:	e8 2a e7 ff ff       	call   ae0 <close@plt>
    23b6:	83 c4 10             	add    $0x10,%esp
    23b9:	b8 ff ff ff ff       	mov    $0xffffffff,%eax
    23be:	e9 13 01 00 00       	jmp    24d6 <submitr+0x79e>
    23c3:	83 ec 08             	sub    $0x8,%esp
    23c6:	8d 83 e5 dd ff ff    	lea    -0x221b(%ebx),%eax
    23cc:	50                   	push   %eax
    23cd:	8d 85 e4 7f ff ff    	lea    -0x801c(%ebp),%eax
    23d3:	50                   	push   %eax
    23d4:	e8 37 e5 ff ff       	call   910 <strcmp@plt>
    23d9:	83 c4 10             	add    $0x10,%esp
    23dc:	85 c0                	test   %eax,%eax
    23de:	0f 85 45 ff ff ff    	jne    2329 <submitr+0x5f1>
    23e4:	83 ec 04             	sub    $0x4,%esp
    23e7:	68 00 20 00 00       	push   $0x2000
    23ec:	8d 85 e4 7f ff ff    	lea    -0x801c(%ebp),%eax
    23f2:	50                   	push   %eax
    23f3:	8d 85 d8 5f ff ff    	lea    -0xa028(%ebp),%eax
    23f9:	50                   	push   %eax
    23fa:	e8 9a f6 ff ff       	call   1a99 <rio_readlineb>
    23ff:	83 c4 10             	add    $0x10,%esp
    2402:	85 c0                	test   %eax,%eax
    2404:	7f 7f                	jg     2485 <submitr+0x74d>
    2406:	8b 85 8c 5f ff ff    	mov    -0xa074(%ebp),%eax
    240c:	c7 00 45 72 72 6f    	movl   $0x6f727245,(%eax)
    2412:	c7 40 04 72 3a 20 43 	movl   $0x43203a72,0x4(%eax)
    2419:	c7 40 08 6c 69 65 6e 	movl   $0x6e65696c,0x8(%eax)
    2420:	c7 40 0c 74 20 75 6e 	movl   $0x6e752074,0xc(%eax)
    2427:	c7 40 10 61 62 6c 65 	movl   $0x656c6261,0x10(%eax)
    242e:	c7 40 14 20 74 6f 20 	movl   $0x206f7420,0x14(%eax)
    2435:	c7 40 18 72 65 61 64 	movl   $0x64616572,0x18(%eax)
    243c:	c7 40 1c 20 73 74 61 	movl   $0x61747320,0x1c(%eax)
    2443:	c7 40 20 74 75 73 20 	movl   $0x20737574,0x20(%eax)
    244a:	c7 40 24 6d 65 73 73 	movl   $0x7373656d,0x24(%eax)
    2451:	c7 40 28 61 67 65 20 	movl   $0x20656761,0x28(%eax)
    2458:	c7 40 2c 66 72 6f 6d 	movl   $0x6d6f7266,0x2c(%eax)
    245f:	c7 40 30 20 73 65 72 	movl   $0x72657320,0x30(%eax)
    2466:	c7 40 34 76 65 72 00 	movl   $0x726576,0x34(%eax)
    246d:	83 ec 0c             	sub    $0xc,%esp
    2470:	ff b5 b8 5f ff ff    	pushl  -0xa048(%ebp)
    2476:	e8 65 e6 ff ff       	call   ae0 <close@plt>
    247b:	83 c4 10             	add    $0x10,%esp
    247e:	b8 ff ff ff ff       	mov    $0xffffffff,%eax
    2483:	eb 51                	jmp    24d6 <submitr+0x79e>
    2485:	83 ec 08             	sub    $0x8,%esp
    2488:	8d 85 e4 7f ff ff    	lea    -0x801c(%ebp),%eax
    248e:	50                   	push   %eax
    248f:	ff b5 8c 5f ff ff    	pushl  -0xa074(%ebp)
    2495:	e8 46 e5 ff ff       	call   9e0 <strcpy@plt>
    249a:	83 c4 10             	add    $0x10,%esp
    249d:	83 ec 0c             	sub    $0xc,%esp
    24a0:	ff b5 b8 5f ff ff    	pushl  -0xa048(%ebp)
    24a6:	e8 35 e6 ff ff       	call   ae0 <close@plt>
    24ab:	83 c4 10             	add    $0x10,%esp
    24ae:	83 ec 08             	sub    $0x8,%esp
    24b1:	8d 83 e8 dd ff ff    	lea    -0x2218(%ebx),%eax
    24b7:	50                   	push   %eax
    24b8:	ff b5 8c 5f ff ff    	pushl  -0xa074(%ebp)
    24be:	e8 4d e4 ff ff       	call   910 <strcmp@plt>
    24c3:	83 c4 10             	add    $0x10,%esp
    24c6:	85 c0                	test   %eax,%eax
    24c8:	75 07                	jne    24d1 <submitr+0x799>
    24ca:	b8 00 00 00 00       	mov    $0x0,%eax
    24cf:	eb 05                	jmp    24d6 <submitr+0x79e>
    24d1:	b8 ff ff ff ff       	mov    $0xffffffff,%eax
    24d6:	8b 7d e4             	mov    -0x1c(%ebp),%edi
    24d9:	65 33 3d 14 00 00 00 	xor    %gs:0x14,%edi
    24e0:	74 05                	je     24e7 <submitr+0x7af>
    24e2:	e8 89 03 00 00       	call   2870 <__stack_chk_fail_local>
    24e7:	8d 65 f4             	lea    -0xc(%ebp),%esp
    24ea:	5b                   	pop    %ebx
    24eb:	5e                   	pop    %esi
    24ec:	5f                   	pop    %edi
    24ed:	5d                   	pop    %ebp
    24ee:	c3                   	ret    

000024ef <init_timeout>:
    24ef:	55                   	push   %ebp
    24f0:	89 e5                	mov    %esp,%ebp
    24f2:	53                   	push   %ebx
    24f3:	83 ec 04             	sub    $0x4,%esp
    24f6:	e8 55 e6 ff ff       	call   b50 <__x86.get_pc_thunk.bx>
    24fb:	81 c3 5d 2a 00 00    	add    $0x2a5d,%ebx
    2501:	83 7d 08 00          	cmpl   $0x0,0x8(%ebp)
    2505:	74 32                	je     2539 <init_timeout+0x4a>
    2507:	83 7d 08 00          	cmpl   $0x0,0x8(%ebp)
    250b:	79 07                	jns    2514 <init_timeout+0x25>
    250d:	c7 45 08 00 00 00 00 	movl   $0x0,0x8(%ebp)
    2514:	83 ec 08             	sub    $0x8,%esp
    2517:	8d 83 00 ca ff ff    	lea    -0x3600(%ebx),%eax
    251d:	50                   	push   %eax
    251e:	6a 0e                	push   $0xe
    2520:	e8 5b e4 ff ff       	call   980 <signal@plt>
    2525:	83 c4 10             	add    $0x10,%esp
    2528:	8b 45 08             	mov    0x8(%ebp),%eax
    252b:	83 ec 0c             	sub    $0xc,%esp
    252e:	50                   	push   %eax
    252f:	e8 6c e4 ff ff       	call   9a0 <alarm@plt>
    2534:	83 c4 10             	add    $0x10,%esp
    2537:	eb 01                	jmp    253a <init_timeout+0x4b>
    2539:	90                   	nop
    253a:	8b 5d fc             	mov    -0x4(%ebp),%ebx
    253d:	c9                   	leave  
    253e:	c3                   	ret    

0000253f <init_driver>:
    253f:	55                   	push   %ebp
    2540:	89 e5                	mov    %esp,%ebp
    2542:	53                   	push   %ebx
    2543:	83 ec 44             	sub    $0x44,%esp
    2546:	e8 05 e6 ff ff       	call   b50 <__x86.get_pc_thunk.bx>
    254b:	81 c3 0d 2a 00 00    	add    $0x2a0d,%ebx
    2551:	8b 45 08             	mov    0x8(%ebp),%eax
    2554:	89 45 c4             	mov    %eax,-0x3c(%ebp)
    2557:	65 a1 14 00 00 00    	mov    %gs:0x14,%eax
    255d:	89 45 f4             	mov    %eax,-0xc(%ebp)
    2560:	31 c0                	xor    %eax,%eax
    2562:	8d 83 eb dd ff ff    	lea    -0x2215(%ebx),%eax
    2568:	89 45 d4             	mov    %eax,-0x2c(%ebp)
    256b:	c7 45 d8 6e 3b 00 00 	movl   $0x3b6e,-0x28(%ebp)
    2572:	83 ec 08             	sub    $0x8,%esp
    2575:	6a 01                	push   $0x1
    2577:	6a 0d                	push   $0xd
    2579:	e8 02 e4 ff ff       	call   980 <signal@plt>
    257e:	83 c4 10             	add    $0x10,%esp
    2581:	83 ec 08             	sub    $0x8,%esp
    2584:	6a 01                	push   $0x1
    2586:	6a 1d                	push   $0x1d
    2588:	e8 f3 e3 ff ff       	call   980 <signal@plt>
    258d:	83 c4 10             	add    $0x10,%esp
    2590:	83 ec 08             	sub    $0x8,%esp
    2593:	6a 01                	push   $0x1
    2595:	6a 1d                	push   $0x1d
    2597:	e8 e4 e3 ff ff       	call   980 <signal@plt>
    259c:	83 c4 10             	add    $0x10,%esp
    259f:	83 ec 04             	sub    $0x4,%esp
    25a2:	6a 00                	push   $0x0
    25a4:	6a 01                	push   $0x1
    25a6:	6a 02                	push   $0x2
    25a8:	e8 03 e5 ff ff       	call   ab0 <socket@plt>
    25ad:	83 c4 10             	add    $0x10,%esp
    25b0:	89 45 dc             	mov    %eax,-0x24(%ebp)
    25b3:	83 7d dc 00          	cmpl   $0x0,-0x24(%ebp)
    25b7:	79 51                	jns    260a <init_driver+0xcb>
    25b9:	8b 45 c4             	mov    -0x3c(%ebp),%eax
    25bc:	c7 00 45 72 72 6f    	movl   $0x6f727245,(%eax)
    25c2:	c7 40 04 72 3a 20 43 	movl   $0x43203a72,0x4(%eax)
    25c9:	c7 40 08 6c 69 65 6e 	movl   $0x6e65696c,0x8(%eax)
    25d0:	c7 40 0c 74 20 75 6e 	movl   $0x6e752074,0xc(%eax)
    25d7:	c7 40 10 61 62 6c 65 	movl   $0x656c6261,0x10(%eax)
    25de:	c7 40 14 20 74 6f 20 	movl   $0x206f7420,0x14(%eax)
    25e5:	c7 40 18 63 72 65 61 	movl   $0x61657263,0x18(%eax)
    25ec:	c7 40 1c 74 65 20 73 	movl   $0x73206574,0x1c(%eax)
    25f3:	c7 40 20 6f 63 6b 65 	movl   $0x656b636f,0x20(%eax)
    25fa:	66 c7 40 24 74 00    	movw   $0x74,0x24(%eax)
    2600:	b8 ff ff ff ff       	mov    $0xffffffff,%eax
    2605:	e9 3d 01 00 00       	jmp    2747 <init_driver+0x208>
    260a:	83 ec 0c             	sub    $0xc,%esp
    260d:	ff 75 d4             	pushl  -0x2c(%ebp)
    2610:	e8 ab e4 ff ff       	call   ac0 <gethostbyname@plt>
    2615:	83 c4 10             	add    $0x10,%esp
    2618:	89 45 e0             	mov    %eax,-0x20(%ebp)
    261b:	83 7d e0 00          	cmpl   $0x0,-0x20(%ebp)
    261f:	75 71                	jne    2692 <init_driver+0x153>
    2621:	8b 45 c4             	mov    -0x3c(%ebp),%eax
    2624:	c7 00 45 72 72 6f    	movl   $0x6f727245,(%eax)
    262a:	c7 40 04 72 3a 20 44 	movl   $0x44203a72,0x4(%eax)
    2631:	c7 40 08 4e 53 20 69 	movl   $0x6920534e,0x8(%eax)
    2638:	c7 40 0c 73 20 75 6e 	movl   $0x6e752073,0xc(%eax)
    263f:	c7 40 10 61 62 6c 65 	movl   $0x656c6261,0x10(%eax)
    2646:	c7 40 14 20 74 6f 20 	movl   $0x206f7420,0x14(%eax)
    264d:	c7 40 18 72 65 73 6f 	movl   $0x6f736572,0x18(%eax)
    2654:	c7 40 1c 6c 76 65 20 	movl   $0x2065766c,0x1c(%eax)
    265b:	c7 40 20 73 65 72 76 	movl   $0x76726573,0x20(%eax)
    2662:	c7 40 24 65 72 20 61 	movl   $0x61207265,0x24(%eax)
    2669:	c7 40 28 64 64 72 65 	movl   $0x65726464,0x28(%eax)
    2670:	66 c7 40 2c 73 73    	movw   $0x7373,0x2c(%eax)
    2676:	c6 40 2e 00          	movb   $0x0,0x2e(%eax)
    267a:	83 ec 0c             	sub    $0xc,%esp
    267d:	ff 75 dc             	pushl  -0x24(%ebp)
    2680:	e8 5b e4 ff ff       	call   ae0 <close@plt>
    2685:	83 c4 10             	add    $0x10,%esp
    2688:	b8 ff ff ff ff       	mov    $0xffffffff,%eax
    268d:	e9 b5 00 00 00       	jmp    2747 <init_driver+0x208>
    2692:	83 ec 08             	sub    $0x8,%esp
    2695:	6a 10                	push   $0x10
    2697:	8d 45 e4             	lea    -0x1c(%ebp),%eax
    269a:	50                   	push   %eax
    269b:	e8 c0 e2 ff ff       	call   960 <bzero@plt>
    26a0:	83 c4 10             	add    $0x10,%esp
    26a3:	66 c7 45 e4 02 00    	movw   $0x2,-0x1c(%ebp)
    26a9:	8b 45 e0             	mov    -0x20(%ebp),%eax
    26ac:	8b 40 0c             	mov    0xc(%eax),%eax
    26af:	89 c2                	mov    %eax,%edx
    26b1:	8b 45 e0             	mov    -0x20(%ebp),%eax
    26b4:	8b 40 10             	mov    0x10(%eax),%eax
    26b7:	8b 00                	mov    (%eax),%eax
    26b9:	83 ec 04             	sub    $0x4,%esp
    26bc:	52                   	push   %edx
    26bd:	8d 55 e4             	lea    -0x1c(%ebp),%edx
    26c0:	83 c2 04             	add    $0x4,%edx
    26c3:	52                   	push   %edx
    26c4:	50                   	push   %eax
    26c5:	e8 06 e3 ff ff       	call   9d0 <bcopy@plt>
    26ca:	83 c4 10             	add    $0x10,%esp
    26cd:	8b 45 d8             	mov    -0x28(%ebp),%eax
    26d0:	0f b7 c0             	movzwl %ax,%eax
    26d3:	83 ec 0c             	sub    $0xc,%esp
    26d6:	50                   	push   %eax
    26d7:	e8 e4 e2 ff ff       	call   9c0 <htons@plt>
    26dc:	83 c4 10             	add    $0x10,%esp
    26df:	66 89 45 e6          	mov    %ax,-0x1a(%ebp)
    26e3:	83 ec 04             	sub    $0x4,%esp
    26e6:	6a 10                	push   $0x10
    26e8:	8d 45 e4             	lea    -0x1c(%ebp),%eax
    26eb:	50                   	push   %eax
    26ec:	ff 75 dc             	pushl  -0x24(%ebp)
    26ef:	e8 dc e3 ff ff       	call   ad0 <connect@plt>
    26f4:	83 c4 10             	add    $0x10,%esp
    26f7:	85 c0                	test   %eax,%eax
    26f9:	79 2d                	jns    2728 <init_driver+0x1e9>
    26fb:	83 ec 04             	sub    $0x4,%esp
    26fe:	ff 75 d4             	pushl  -0x2c(%ebp)
    2701:	8d 83 f8 dd ff ff    	lea    -0x2208(%ebx),%eax
    2707:	50                   	push   %eax
    2708:	ff 75 c4             	pushl  -0x3c(%ebp)
    270b:	e8 80 e3 ff ff       	call   a90 <sprintf@plt>
    2710:	83 c4 10             	add    $0x10,%esp
    2713:	83 ec 0c             	sub    $0xc,%esp
    2716:	ff 75 dc             	pushl  -0x24(%ebp)
    2719:	e8 c2 e3 ff ff       	call   ae0 <close@plt>
    271e:	83 c4 10             	add    $0x10,%esp
    2721:	b8 ff ff ff ff       	mov    $0xffffffff,%eax
    2726:	eb 1f                	jmp    2747 <init_driver+0x208>
    2728:	83 ec 0c             	sub    $0xc,%esp
    272b:	ff 75 dc             	pushl  -0x24(%ebp)
    272e:	e8 ad e3 ff ff       	call   ae0 <close@plt>
    2733:	83 c4 10             	add    $0x10,%esp
    2736:	8b 45 c4             	mov    -0x3c(%ebp),%eax
    2739:	66 c7 00 4f 4b       	movw   $0x4b4f,(%eax)
    273e:	c6 40 02 00          	movb   $0x0,0x2(%eax)
    2742:	b8 00 00 00 00       	mov    $0x0,%eax
    2747:	8b 4d f4             	mov    -0xc(%ebp),%ecx
    274a:	65 33 0d 14 00 00 00 	xor    %gs:0x14,%ecx
    2751:	74 05                	je     2758 <init_driver+0x219>
    2753:	e8 18 01 00 00       	call   2870 <__stack_chk_fail_local>
    2758:	8b 5d fc             	mov    -0x4(%ebp),%ebx
    275b:	c9                   	leave  
    275c:	c3                   	ret    

0000275d <driver_post>:
    275d:	55                   	push   %ebp
    275e:	89 e5                	mov    %esp,%ebp
    2760:	53                   	push   %ebx
    2761:	83 ec 14             	sub    $0x14,%esp
    2764:	e8 ab ec ff ff       	call   1414 <__x86.get_pc_thunk.ax>
    2769:	05 ef 27 00 00       	add    $0x27ef,%eax
    276e:	83 7d 14 00          	cmpl   $0x0,0x14(%ebp)
    2772:	74 2a                	je     279e <driver_post+0x41>
    2774:	83 ec 08             	sub    $0x8,%esp
    2777:	ff 75 10             	pushl  0x10(%ebp)
    277a:	8d 90 1e de ff ff    	lea    -0x21e2(%eax),%edx
    2780:	52                   	push   %edx
    2781:	89 c3                	mov    %eax,%ebx
    2783:	e8 a8 e1 ff ff       	call   930 <printf@plt>
    2788:	83 c4 10             	add    $0x10,%esp
    278b:	8b 45 18             	mov    0x18(%ebp),%eax
    278e:	66 c7 00 4f 4b       	movw   $0x4b4f,(%eax)
    2793:	c6 40 02 00          	movb   $0x0,0x2(%eax)
    2797:	b8 00 00 00 00       	mov    $0x0,%eax
    279c:	eb 5a                	jmp    27f8 <driver_post+0x9b>
    279e:	83 7d 08 00          	cmpl   $0x0,0x8(%ebp)
    27a2:	74 43                	je     27e7 <driver_post+0x8a>
    27a4:	8b 55 08             	mov    0x8(%ebp),%edx
    27a7:	0f b6 12             	movzbl (%edx),%edx
    27aa:	0f b6 d2             	movzbl %dl,%edx
    27ad:	85 d2                	test   %edx,%edx
    27af:	74 36                	je     27e7 <driver_post+0x8a>
    27b1:	ff 75 18             	pushl  0x18(%ebp)
    27b4:	ff 75 10             	pushl  0x10(%ebp)
    27b7:	8d 90 35 de ff ff    	lea    -0x21cb(%eax),%edx
    27bd:	52                   	push   %edx
    27be:	ff 75 0c             	pushl  0xc(%ebp)
    27c1:	ff 75 08             	pushl  0x8(%ebp)
    27c4:	8d 90 3d de ff ff    	lea    -0x21c3(%eax),%edx
    27ca:	52                   	push   %edx
    27cb:	68 6e 3b 00 00       	push   $0x3b6e
    27d0:	8d 80 eb dd ff ff    	lea    -0x2215(%eax),%eax
    27d6:	50                   	push   %eax
    27d7:	e8 5c f5 ff ff       	call   1d38 <submitr>
    27dc:	83 c4 20             	add    $0x20,%esp
    27df:	89 45 f4             	mov    %eax,-0xc(%ebp)
    27e2:	8b 45 f4             	mov    -0xc(%ebp),%eax
    27e5:	eb 11                	jmp    27f8 <driver_post+0x9b>
    27e7:	8b 45 18             	mov    0x18(%ebp),%eax
    27ea:	66 c7 00 4f 4b       	movw   $0x4b4f,(%eax)
    27ef:	c6 40 02 00          	movb   $0x0,0x2(%eax)
    27f3:	b8 00 00 00 00       	mov    $0x0,%eax
    27f8:	8b 5d fc             	mov    -0x4(%ebp),%ebx
    27fb:	c9                   	leave  
    27fc:	c3                   	ret    
    27fd:	66 90                	xchg   %ax,%ax
    27ff:	90                   	nop

00002800 <__libc_csu_init>:
    2800:	55                   	push   %ebp
    2801:	57                   	push   %edi
    2802:	56                   	push   %esi
    2803:	53                   	push   %ebx
    2804:	e8 47 e3 ff ff       	call   b50 <__x86.get_pc_thunk.bx>
    2809:	81 c3 4f 27 00 00    	add    $0x274f,%ebx
    280f:	83 ec 0c             	sub    $0xc,%esp
    2812:	8b 6c 24 28          	mov    0x28(%esp),%ebp
    2816:	8d b3 04 ff ff ff    	lea    -0xfc(%ebx),%esi
    281c:	e8 af e0 ff ff       	call   8d0 <_init>
    2821:	8d 83 00 ff ff ff    	lea    -0x100(%ebx),%eax
    2827:	29 c6                	sub    %eax,%esi
    2829:	c1 fe 02             	sar    $0x2,%esi
    282c:	85 f6                	test   %esi,%esi
    282e:	74 25                	je     2855 <__libc_csu_init+0x55>
    2830:	31 ff                	xor    %edi,%edi
    2832:	8d b6 00 00 00 00    	lea    0x0(%esi),%esi
    2838:	83 ec 04             	sub    $0x4,%esp
    283b:	55                   	push   %ebp
    283c:	ff 74 24 2c          	pushl  0x2c(%esp)
    2840:	ff 74 24 2c          	pushl  0x2c(%esp)
    2844:	ff 94 bb 00 ff ff ff 	call   *-0x100(%ebx,%edi,4)
    284b:	83 c7 01             	add    $0x1,%edi
    284e:	83 c4 10             	add    $0x10,%esp
    2851:	39 fe                	cmp    %edi,%esi
    2853:	75 e3                	jne    2838 <__libc_csu_init+0x38>
    2855:	83 c4 0c             	add    $0xc,%esp
    2858:	5b                   	pop    %ebx
    2859:	5e                   	pop    %esi
    285a:	5f                   	pop    %edi
    285b:	5d                   	pop    %ebp
    285c:	c3                   	ret    
    285d:	8d 76 00             	lea    0x0(%esi),%esi

00002860 <__libc_csu_fini>:
    2860:	f3 c3                	repz ret 
    2862:	66 90                	xchg   %ax,%ax
    2864:	66 90                	xchg   %ax,%ax
    2866:	66 90                	xchg   %ax,%ax
    2868:	66 90                	xchg   %ax,%ax
    286a:	66 90                	xchg   %ax,%ax
    286c:	66 90                	xchg   %ax,%ax
    286e:	66 90                	xchg   %ax,%ax

00002870 <__stack_chk_fail_local>:
    2870:	53                   	push   %ebx
    2871:	e8 da e2 ff ff       	call   b50 <__x86.get_pc_thunk.bx>
    2876:	81 c3 e2 26 00 00    	add    $0x26e2,%ebx
    287c:	83 ec 08             	sub    $0x8,%esp
    287f:	e8 2c e1 ff ff       	call   9b0 <__stack_chk_fail@plt>

Disassembly of section .fini:

00002884 <_fini>:
    2884:	53                   	push   %ebx
    2885:	83 ec 08             	sub    $0x8,%esp
    2888:	e8 c3 e2 ff ff       	call   b50 <__x86.get_pc_thunk.bx>
    288d:	81 c3 cb 26 00 00    	add    $0x26cb,%ebx
    2893:	83 c4 08             	add    $0x8,%esp
    2896:	5b                   	pop    %ebx
    2897:	c3                   	ret    
